(lp1
(imodel.training_problem
Training_problem
p2
(dp3
S'p_str_tokens'
p4
(lp5
S'the'
p6
aS'typical'
p7
aS'iOS'
p8
aS'app'
p9
asS'gold'
p10
(lp11
(imodel.alignment_eq
Eq
p12
(dp13
S'p_wn_tag'
p14
S'SKIP'
p15
sS'p_penn_tag'
p16
S'DT'
p17
sS'h_wn_tag'
p18
g15
sS'tag_conversion_dict'
p19
(dp20
S'VB'
p21
S'v'
sS'RB'
p22
S'r'
sS'JJ'
p23
S'a'
sS'NN'
p24
S'n'
ssS'h_lemma'
p25
S'the'
p26
sS'h_token'
p27
g26
sS'p_index'
p28
I0
sS'h_index'
p29
I0
sS'p_lemma'
p30
g6
sS'p_token'
p31
g6
sS'edit_type'
p32
S'EQ'
p33
sS'h_penn_tag'
p34
g17
sbaccopy_reg
_reconstructor
p35
(cmodel.alignment_sub
Sub
p36
c__builtin__
object
p37
NtRp38
(dp39
g14
S'a'
sg16
S'JJ'
p40
sg18
S'a'
sg19
(dp41
g21
S'v'
sg22
S'r'
sg23
S'a'
sg24
S'n'
ssg25
S'great'
p42
sg27
S'greatest'
p43
sg28
I1
sg29
I1
sg30
g7
sg31
g7
sg32
S'SUB'
p44
sg34
S'JJS'
p45
sba(imodel.alignment_eq
Eq
p46
(dp47
g14
S'n'
sg16
S'NNP'
p48
sg18
S'n'
sg19
(dp49
g21
S'v'
sg22
S'r'
sg23
S'a'
sg24
S'n'
ssg25
S'iOS'
p50
sg27
g50
sg28
I2
sg29
I2
sg30
g8
sg31
g8
sg32
g33
sg34
g48
sba(imodel.alignment_ins
Ins
p51
(dp52
g27
S'fart'
p53
sg32
S'INS'
p54
sba(imodel.alignment_eq
Eq
p55
(dp56
g14
S'n'
sg16
S'NN'
p57
sg18
S'n'
sg19
(dp58
g21
S'v'
sg22
S'r'
sg23
S'a'
sg24
S'n'
ssg25
S'app'
p59
sg27
g59
sg28
I3
sg29
I4
sg30
g9
sg31
g9
sg32
g33
sg34
g57
sbasS'h_str_tokens'
p60
(lp61
g26
ag43
ag50
ag53
ag59
asba(imodel.training_problem
Training_problem
p62
(dp63
g4
(lp64
S'the'
p65
aS'distinguished'
p66
aS'professor'
p67
aS'of'
p68
aS'mathematics'
p69
asg10
(lp70
(imodel.alignment_eq
Eq
p71
(dp72
g14
g15
sg16
g17
sg18
g15
sg19
(dp73
g21
S'v'
sg22
S'r'
sg23
S'a'
sg24
S'n'
ssg25
S'the'
p74
sg27
g74
sg28
I0
sg29
I0
sg30
g65
sg31
g65
sg32
g33
sg34
g17
sbag35
(g36
g37
NtRp75
(dp76
g14
S'n'
sg16
S'NNS'
p77
sg18
S'n'
sg19
(dp78
g21
S'v'
sg22
S'r'
sg23
S'a'
sg24
S'n'
ssg25
S'math'
p79
sg27
g79
sg28
I4
sg29
I1
sg30
g69
sg31
g69
sg32
g44
sg34
g57
sba(imodel.alignment_eq
Eq
p80
(dp81
g14
S'n'
sg16
g57
sg18
S'n'
sg19
(dp82
g21
S'v'
sg22
S'r'
sg23
S'a'
sg24
S'n'
ssg25
S'professor'
p83
sg27
g83
sg28
I2
sg29
I2
sg30
g67
sg31
g67
sg32
g33
sg34
g57
sba(imodel.alignment_del
Del
p84
(dp85
g31
g66
sg32
S'DEL'
p86
sba(imodel.alignment_del
Del
p87
(dp88
g31
g68
sg32
g86
sbasg60
(lp89
g74
ag79
ag83
asba(imodel.training_problem
Training_problem
p90
(dp91
g4
(lp92
S'a'
aS'liar'
p93
aS'and'
p94
aS'slave'
p95
asg10
(lp96
(imodel.alignment_eq
Eq
p97
(dp98
g14
g15
sg16
g17
sg18
g15
sg19
(dp99
g21
S'v'
sg22
S'r'
sg23
S'a'
sg24
S'n'
ssg25
S'a'
sg27
S'a'
sg28
I0
sg29
I0
sg30
S'a'
sg31
S'a'
sg32
g33
sg34
g17
sba(imodel.alignment_eq
Eq
p100
(dp101
g14
S'n'
sg16
g57
sg18
S'n'
sg19
(dp102
g21
S'v'
sg22
S'r'
sg23
S'a'
sg24
S'n'
ssg25
S'liar'
p103
sg27
g103
sg28
I1
sg29
I1
sg30
g93
sg31
g93
sg32
g33
sg34
g57
sba(imodel.alignment_del
Del
p104
(dp105
g31
g94
sg32
g86
sba(imodel.alignment_del
Del
p106
(dp107
g31
g95
sg32
g86
sbasg60
(lp108
S'a'
ag103
asba(imodel.training_problem
Training_problem
p109
(dp110
g4
(lp111
S'a'
aS'smarmy'
p112
aS'twat'
p113
asg10
(lp114
(imodel.alignment_eq
Eq
p115
(dp116
g14
g15
sg16
g17
sg18
g15
sg19
(dp117
g21
S'v'
sg22
S'r'
sg23
S'a'
sg24
S'n'
ssg25
S'a'
sg27
S'a'
sg28
I0
sg29
I0
sg30
S'a'
sg31
S'a'
sg32
g33
sg34
g17
sba(imodel.alignment_eq
Eq
p118
(dp119
g14
S'n'
sg16
g57
sg18
S'n'
sg19
(dp120
g21
S'v'
sg22
S'r'
sg23
S'a'
sg24
S'n'
ssg25
S'twat'
p121
sg27
g121
sg28
I2
sg29
I1
sg30
g113
sg31
g113
sg32
g33
sg34
g57
sba(imodel.alignment_del
Del
p122
(dp123
g31
g112
sg32
g86
sbasg60
(lp124
S'a'
ag121
asba(imodel.training_problem
Training_problem
p125
(dp126
g4
(lp127
S'a'
aS'person'
p128
aS'that'
p129
aS'cannot'
p130
aS'be'
p131
aS'trusted'
p132
asg10
(lp133
(imodel.alignment_eq
Eq
p134
(dp135
g14
g15
sg16
g17
sg18
g15
sg19
(dp136
g21
S'v'
sg22
S'r'
sg23
S'a'
sg24
S'n'
ssg25
S'a'
sg27
S'a'
sg28
I0
sg29
I0
sg30
S'a'
sg31
S'a'
sg32
g33
sg34
g17
sba(imodel.alignment_eq
Eq
p137
(dp138
g14
S'n'
sg16
g57
sg18
S'n'
sg19
(dp139
g21
S'v'
sg22
S'r'
sg23
S'a'
sg24
S'n'
ssg25
S'person'
p140
sg27
g140
sg28
I1
sg29
I1
sg30
g128
sg31
g128
sg32
g33
sg34
g57
sba(imodel.alignment_ins
Ins
p141
(dp142
g27
S'unworthy'
p143
sg32
g54
sba(imodel.alignment_ins
Ins
p144
(dp145
g27
S'of'
p146
sg32
g54
sbag35
(g36
g37
NtRp147
(dp148
g14
S'v'
sg16
S'VBN'
p149
sg18
S'n'
sg19
(dp150
g21
S'v'
sg22
S'r'
sg23
S'a'
sg24
S'n'
ssg25
S'trust'
p151
sg27
g151
sg28
I5
sg29
I4
sg30
S'trust'
p152
sg31
g132
sg32
g44
sg34
g57
sba(imodel.alignment_del
Del
p153
(dp154
g31
g129
sg32
g86
sba(imodel.alignment_del
Del
p155
(dp156
g31
g130
sg32
g86
sba(imodel.alignment_del
Del
p157
(dp158
g31
g131
sg32
g86
sbasg60
(lp159
S'a'
ag140
ag143
ag146
ag151
asba(imodel.training_problem
Training_problem
p160
(dp161
g4
(lp162
S'a'
aS'lazy'
p163
aS'cunt'
p164
asg10
(lp165
(imodel.alignment_eq
Eq
p166
(dp167
g14
g15
sg16
g17
sg18
g15
sg19
(dp168
g21
S'v'
sg22
S'r'
sg23
S'a'
sg24
S'n'
ssg25
S'a'
sg27
S'a'
sg28
I0
sg29
I0
sg30
S'a'
sg31
S'a'
sg32
g33
sg34
g17
sbag35
(g36
g37
NtRp169
(dp170
g14
S'n'
sg16
g57
sg18
S'a'
sg19
(dp171
g21
S'v'
sg22
S'r'
sg23
S'a'
sg24
S'n'
ssg25
S'stupid'
p172
sg27
g172
sg28
I1
sg29
I1
sg30
g163
sg31
g163
sg32
g44
sg34
g40
sba(imodel.alignment_eq
Eq
p173
(dp174
g14
S'n'
sg16
g57
sg18
S'n'
sg19
(dp175
g21
S'v'
sg22
S'r'
sg23
S'a'
sg24
S'n'
ssg25
S'cunt'
p176
sg27
g176
sg28
I2
sg29
I2
sg30
g164
sg31
g164
sg32
g33
sg34
g57
sbasg60
(lp177
S'a'
ag172
ag176
asba(imodel.training_problem
Training_problem
p178
(dp179
g4
(lp180
S'an'
p181
aS'arrogant'
p182
aS'company'
p183
asg10
(lp184
(imodel.alignment_ins
Ins
p185
(dp186
g27
S'Apple'
p187
sg32
g54
sba(imodel.alignment_ins
Ins
p188
(dp189
g27
S','
sg32
g54
sbag35
(g36
g37
NtRp190
(dp191
g14
g15
sg16
g17
sg18
g15
sg19
(dp192
g21
S'v'
sg22
S'r'
sg23
S'a'
sg24
S'n'
ssg25
S'a'
sg27
S'a'
sg28
I0
sg29
I2
sg30
g181
sg31
g181
sg32
g44
sg34
g17
sba(imodel.alignment_eq
Eq
p193
(dp194
g14
S'n'
sg16
g57
sg18
S'n'
sg19
(dp195
g21
S'v'
sg22
S'r'
sg23
S'a'
sg24
S'n'
ssg25
S'company'
p196
sg27
g196
sg28
I2
sg29
I3
sg30
g183
sg31
g183
sg32
g33
sg34
g57
sba(imodel.alignment_ins
Ins
p197
(dp198
g27
S'known'
p199
sg32
g54
sba(imodel.alignment_ins
Ins
p200
(dp201
g27
S'for'
p202
sg32
g54
sbag35
(g36
g37
NtRp203
(dp204
g14
S'a'
sg16
g40
sg18
S'n'
sg19
(dp205
g21
S'v'
sg22
S'r'
sg23
S'a'
sg24
S'n'
ssg25
S'arrogance'
p206
sg27
g206
sg28
I1
sg29
I6
sg30
g182
sg31
g182
sg32
g44
sg34
g57
sbasg60
(lp207
g187
aS','
aS'a'
ag196
ag199
ag202
ag206
asba(imodel.training_problem
Training_problem
p208
(dp209
g4
(lp210
S'the'
p211
aS'cheater'
p212
asg10
(lp213
g35
(g36
g37
NtRp214
(dp215
g14
g15
sg16
g17
sg18
g15
sg19
(dp216
g21
S'v'
sg22
S'r'
sg23
S'a'
sg24
S'n'
ssg25
S'a'
sg27
S'a'
sg28
I0
sg29
I0
sg30
g211
sg31
g211
sg32
g44
sg34
g17
sba(imodel.alignment_eq
Eq
p217
(dp218
g14
S'n'
sg16
g57
sg18
S'n'
sg19
(dp219
g21
S'v'
sg22
S'r'
sg23
S'a'
sg24
S'n'
ssg25
S'cheater'
p220
sg27
g220
sg28
I1
sg29
I1
sg30
g212
sg31
g212
sg32
g33
sg34
g57
sbasg60
(lp221
S'a'
ag220
asba(imodel.training_problem
Training_problem
p222
(dp223
g4
(lp224
S'celery'
p225
aS'and'
p226
aS'other'
p227
aS'vegetables'
p228
asg10
(lp229
(imodel.alignment_eq
Eq
p230
(dp231
g14
S'n'
sg16
g77
sg18
S'n'
sg19
(dp232
g21
S'v'
sg22
S'r'
sg23
S'a'
sg24
S'n'
ssg25
S'vegetable'
p233
sg27
S'vegetables'
p234
sg28
I3
sg29
I0
sg30
S'vegetable'
p235
sg31
g228
sg32
g33
sg34
g77
sba(imodel.alignment_ins
Ins
p236
(dp237
g27
S'including'
p238
sg32
g54
sba(imodel.alignment_eq
Eq
p239
(dp240
g14
S'n'
sg16
g57
sg18
S'n'
sg19
(dp241
g21
S'v'
sg22
S'r'
sg23
S'a'
sg24
S'n'
ssg25
S'celery'
p242
sg27
g242
sg28
I0
sg29
I2
sg30
g225
sg31
g225
sg32
g33
sg34
g57
sba(imodel.alignment_del
Del
p243
(dp244
g31
g226
sg32
g86
sba(imodel.alignment_del
Del
p245
(dp246
g31
g227
sg32
g86
sbasg60
(lp247
g234
ag238
ag242
asba(imodel.training_problem
Training_problem
p248
(dp249
g4
(lp250
S'eggplants'
p251
asg10
(lp252
(imodel.alignment_ins
Ins
p253
(dp254
g27
S'an'
p255
sg32
g54
sbag35
(g36
g37
NtRp256
(dp257
g14
S'n'
sg16
g77
sg18
S'a'
sg19
(dp258
g21
S'v'
sg22
S'r'
sg23
S'a'
sg24
S'n'
ssg25
S'eggplant'
p259
sg27
g259
sg28
I0
sg29
I1
sg30
S'eggplant'
p260
sg31
g251
sg32
g44
sg34
g40
sbasg60
(lp261
g255
ag259
asba(imodel.training_problem
Training_problem
p262
(dp263
g4
(lp264
S'lots'
p265
aS'of'
p266
aS'mustard'
p267
asg10
(lp268
g35
(g36
g37
NtRp269
(dp270
g14
S'n'
sg16
g77
sg18
S'n'
sg19
(dp271
g21
S'v'
sg22
S'r'
sg23
S'a'
sg24
S'n'
ssg25
S'abundant'
p272
sg27
g272
sg28
I0
sg29
I0
sg30
S'lot'
p273
sg31
g265
sg32
g44
sg34
g57
sba(imodel.alignment_eq
Eq
p274
(dp275
g14
S'n'
sg16
g57
sg18
S'v'
sg19
(dp276
g21
S'v'
sg22
S'r'
sg23
S'a'
sg24
S'n'
ssg25
S'mustard'
p277
sg27
g277
sg28
I2
sg29
I1
sg30
g267
sg31
g267
sg32
g33
sg34
S'VBD'
p278
sba(imodel.alignment_del
Del
p279
(dp280
g31
g266
sg32
g86
sbasg60
(lp281
g272
ag277
asba(imodel.training_problem
Training_problem
p282
(dp283
g4
(lp284
S'the'
p285
aS'battle'
p286
asg10
(lp287
(imodel.alignment_eq
Eq
p288
(dp289
g14
g15
sg16
g17
sg18
g15
sg19
(dp290
g21
S'v'
sg22
S'r'
sg23
S'a'
sg24
S'n'
ssg25
S'the'
p291
sg27
g291
sg28
I0
sg29
I0
sg30
g285
sg31
g285
sg32
g33
sg34
g17
sbag35
(g36
g37
NtRp292
(dp293
g14
g15
sg16
g17
sg18
S'n'
sg19
(dp294
g21
S'v'
sg22
S'r'
sg23
S'a'
sg24
S'n'
ssg25
S'war'
p295
sg27
g295
sg28
I0
sg29
I1
sg30
g285
sg31
g285
sg32
g44
sg34
g57
sba(imodel.alignment_del
Del
p296
(dp297
g31
g286
sg32
g86
sbasg60
(lp298
g291
ag295
asba(imodel.training_problem
Training_problem
p299
(dp300
g4
(lp301
S'an'
p302
aS'ingrown'
p303
aS'hair'
p304
asg10
(lp305
g35
(g36
g37
NtRp306
(dp307
g14
g15
sg16
g17
sg18
g15
sg19
(dp308
g21
S'v'
sg22
S'r'
sg23
S'a'
sg24
S'n'
ssg25
S'a'
sg27
S'a'
sg28
I0
sg29
I0
sg30
g302
sg31
g302
sg32
g44
sg34
g17
sba(imodel.alignment_eq
Eq
p309
(dp310
g14
S'n'
sg16
g57
sg18
S'n'
sg19
(dp311
g21
S'v'
sg22
S'r'
sg23
S'a'
sg24
S'n'
ssg25
S'hair'
p312
sg27
g312
sg28
I2
sg29
I1
sg30
g304
sg31
g304
sg32
g33
sg34
g57
sba(imodel.alignment_del
Del
p313
(dp314
g31
g303
sg32
g86
sbasg60
(lp315
S'a'
ag312
asba(imodel.training_problem
Training_problem
p316
(dp317
g4
(lp318
S'a'
aS'tasty'
p319
aS'snack'
p320
asg10
(lp321
g35
(g36
g37
NtRp322
(dp323
g14
g15
sg16
g17
sg18
g15
sg19
(dp324
g21
S'v'
sg22
S'r'
sg23
S'a'
sg24
S'n'
ssg25
S'some'
p325
sg27
g325
sg28
I0
sg29
I0
sg30
S'a'
sg31
S'a'
sg32
g44
sg34
g17
sbag35
(g36
g37
NtRp326
(dp327
g14
S'n'
sg16
g57
sg18
S'n'
sg19
(dp328
g21
S'v'
sg22
S'r'
sg23
S'a'
sg24
S'n'
ssg25
S'food'
p329
sg27
g329
sg28
I2
sg29
I1
sg30
g320
sg31
g320
sg32
g44
sg34
g57
sba(imodel.alignment_del
Del
p330
(dp331
g31
g319
sg32
g86
sbasg60
(lp332
g325
ag329
asba(imodel.training_problem
Training_problem
p333
(dp334
g4
(lp335
S'the'
p336
aS'most'
p337
aS'delicious'
p338
aS'cheeseburger'
p339
asg10
(lp340
g35
(g36
g37
NtRp341
(dp342
g14
g15
sg16
g17
sg18
g15
sg19
(dp343
g21
S'v'
sg22
S'r'
sg23
S'a'
sg24
S'n'
ssg25
S'a'
sg27
S'a'
sg28
I0
sg29
I0
sg30
g336
sg31
g336
sg32
g44
sg34
g17
sba(imodel.alignment_eq
Eq
p344
(dp345
g14
S'n'
sg16
g57
sg18
S'n'
sg19
(dp346
g21
S'v'
sg22
S'r'
sg23
S'a'
sg24
S'n'
ssg25
S'cheeseburger'
p347
sg27
g347
sg28
I3
sg29
I1
sg30
g339
sg31
g339
sg32
g33
sg34
g57
sba(imodel.alignment_del
Del
p348
(dp349
g31
g337
sg32
g86
sba(imodel.alignment_del
Del
p350
(dp351
g31
g338
sg32
g86
sbasg60
(lp352
S'a'
ag347
asba(imodel.training_problem
Training_problem
p353
(dp354
g4
(lp355
S'a'
aS'large'
p356
aS'tuna'
p357
asg10
(lp358
g35
(g36
g37
NtRp359
(dp360
g14
g15
sg16
g17
sg18
g15
sg19
(dp361
g21
S'v'
sg22
S'r'
sg23
S'a'
sg24
S'n'
ssg25
S'the'
p362
sg27
g362
sg28
I0
sg29
I0
sg30
S'a'
sg31
S'a'
sg32
g44
sg34
g17
sbag35
(g36
g37
NtRp363
(dp364
g14
S'a'
sg16
g40
sg18
S'a'
sg19
(dp365
g21
S'v'
sg22
S'r'
sg23
S'a'
sg24
S'n'
ssg25
S'big'
p366
sg27
S'biggest'
p367
sg28
I1
sg29
I1
sg30
g356
sg31
g356
sg32
g44
sg34
g45
sba(imodel.alignment_eq
Eq
p368
(dp369
g14
S'n'
sg16
g57
sg18
S'n'
sg19
(dp370
g21
S'v'
sg22
S'r'
sg23
S'a'
sg24
S'n'
ssg25
S'tuna'
p371
sg27
g371
sg28
I2
sg29
I2
sg30
g357
sg31
g357
sg32
g33
sg34
g57
sbasg60
(lp372
g362
ag367
ag371
asba(imodel.training_problem
Training_problem
p373
(dp374
g4
(lp375
S'a'
aS'large'
p376
aS'bird'
p377
asg10
(lp378
(imodel.alignment_eq
Eq
p379
(dp380
g14
g15
sg16
g17
sg18
g15
sg19
(dp381
g21
S'v'
sg22
S'r'
sg23
S'a'
sg24
S'n'
ssg25
S'a'
sg27
S'a'
sg28
I0
sg29
I0
sg30
S'a'
sg31
S'a'
sg32
g33
sg34
g17
sbag35
(g36
g37
NtRp382
(dp383
g14
S'a'
sg16
g40
sg18
S'a'
sg19
(dp384
g21
S'v'
sg22
S'r'
sg23
S'a'
sg24
S'n'
ssg25
S'big'
p385
sg27
g385
sg28
I1
sg29
I1
sg30
g376
sg31
g376
sg32
g44
sg34
g40
sbag35
(g36
g37
NtRp386
(dp387
g14
S'n'
sg16
g57
sg18
S'n'
sg19
(dp388
g21
S'v'
sg22
S'r'
sg23
S'a'
sg24
S'n'
ssg25
S'stork'
p389
sg27
g389
sg28
I2
sg29
I2
sg30
g377
sg31
g377
sg32
g44
sg34
g57
sbasg60
(lp390
S'a'
ag385
ag389
asba(imodel.training_problem
Training_problem
p391
(dp392
g4
(lp393
S'the'
p394
aS'bald'
p395
aS'eagle'
p396
asg10
(lp397
(imodel.alignment_eq
Eq
p398
(dp399
g14
g15
sg16
g17
sg18
g15
sg19
(dp400
g21
S'v'
sg22
S'r'
sg23
S'a'
sg24
S'n'
ssg25
S'the'
p401
sg27
g401
sg28
I0
sg29
I0
sg30
g394
sg31
g394
sg32
g33
sg34
g17
sbag35
(g36
g37
NtRp402
(dp403
g14
S'n'
sg16
g57
sg18
S'n'
sg19
(dp404
g21
S'v'
sg22
S'r'
sg23
S'a'
sg24
S'n'
ssg25
S'mighty'
p405
sg27
g405
sg28
I1
sg29
I1
sg30
g395
sg31
g395
sg32
g44
sg34
g57
sba(imodel.alignment_eq
Eq
p406
(dp407
g14
S'n'
sg16
g57
sg18
S'n'
sg19
(dp408
g21
S'v'
sg22
S'r'
sg23
S'a'
sg24
S'n'
ssg25
S'eagle'
p409
sg27
g409
sg28
I2
sg29
I2
sg30
g396
sg31
g396
sg32
g33
sg34
g57
sbasg60
(lp410
g401
ag405
ag409
asba(imodel.training_problem
Training_problem
p411
(dp412
g4
(lp413
S'a'
aS'fancy'
p414
aS'car'
p415
asg10
(lp416
g35
(g36
g37
NtRp417
(dp418
g14
g15
sg16
g17
sg18
g15
sg19
(dp419
g21
S'v'
sg22
S'r'
sg23
S'a'
sg24
S'n'
ssg25
S'an'
p420
sg27
g420
sg28
I0
sg29
I0
sg30
S'a'
sg31
S'a'
sg32
g44
sg34
g17
sbag35
(g36
g37
NtRp421
(dp422
g14
S'n'
sg16
g57
sg18
S'a'
sg19
(dp423
g21
S'v'
sg22
S'r'
sg23
S'a'
sg24
S'n'
ssg25
S'old'
p424
sg27
g424
sg28
I1
sg29
I1
sg30
g414
sg31
g414
sg32
g44
sg34
g40
sba(imodel.alignment_eq
Eq
p425
(dp426
g14
S'n'
sg16
g57
sg18
S'n'
sg19
(dp427
g21
S'v'
sg22
S'r'
sg23
S'a'
sg24
S'n'
ssg25
S'car'
p428
sg27
g428
sg28
I2
sg29
I2
sg30
g415
sg31
g415
sg32
g33
sg34
g57
sbasg60
(lp429
g420
ag424
ag428
asba(imodel.training_problem
Training_problem
p430
(dp431
g4
(lp432
S'a'
aS'dog'
p433
aS'named'
p434
aS'Earl'
p435
asg10
(lp436
(imodel.alignment_eq
Eq
p437
(dp438
g14
g15
sg16
g17
sg18
g15
sg19
(dp439
g21
S'v'
sg22
S'r'
sg23
S'a'
sg24
S'n'
ssg25
S'a'
sg27
S'a'
sg28
I0
sg29
I0
sg30
S'a'
sg31
S'a'
sg32
g33
sg34
g17
sba(imodel.alignment_eq
Eq
p440
(dp441
g14
S'n'
sg16
g57
sg18
S'n'
sg19
(dp442
g21
S'v'
sg22
S'r'
sg23
S'a'
sg24
S'n'
ssg25
S'dog'
p443
sg27
g443
sg28
I1
sg29
I1
sg30
g433
sg31
g433
sg32
g33
sg34
g57
sba(imodel.alignment_del
Del
p444
(dp445
g31
g434
sg32
g86
sba(imodel.alignment_del
Del
p446
(dp447
g31
g435
sg32
g86
sbasg60
(lp448
S'a'
ag443
asba(imodel.training_problem
Training_problem
p449
(dp450
g4
(lp451
S'a'
aS'sick'
p452
aS'cat'
p453
asg10
(lp454
(imodel.alignment_eq
Eq
p455
(dp456
g14
g15
sg16
g17
sg18
g15
sg19
(dp457
g21
S'v'
sg22
S'r'
sg23
S'a'
sg24
S'n'
ssg25
S'a'
sg27
S'a'
sg28
I0
sg29
I0
sg30
S'a'
sg31
S'a'
sg32
g33
sg34
g17
sbag35
(g36
g37
NtRp458
(dp459
g14
S'n'
sg16
g57
sg18
S'a'
sg19
(dp460
g21
S'v'
sg22
S'r'
sg23
S'a'
sg24
S'n'
ssg25
S'sad'
p461
sg27
g461
sg28
I1
sg29
I1
sg30
g452
sg31
g452
sg32
g44
sg34
g40
sba(imodel.alignment_eq
Eq
p462
(dp463
g14
S'n'
sg16
g57
sg18
S'n'
sg19
(dp464
g21
S'v'
sg22
S'r'
sg23
S'a'
sg24
S'n'
ssg25
S'cat'
p465
sg27
g465
sg28
I2
sg29
I2
sg30
g453
sg31
g453
sg32
g33
sg34
g57
sbasg60
(lp466
S'a'
ag461
ag465
asba(imodel.training_problem
Training_problem
p467
(dp468
g4
(lp469
S'a'
aS'cat'
p470
aS'with'
p471
aS'a'
aS'UTI'
p472
asg10
(lp473
(imodel.alignment_eq
Eq
p474
(dp475
g14
g15
sg16
g17
sg18
g15
sg19
(dp476
g21
S'v'
sg22
S'r'
sg23
S'a'
sg24
S'n'
ssg25
S'a'
sg27
S'a'
sg28
I0
sg29
I0
sg30
S'a'
sg31
S'a'
sg32
g33
sg34
g17
sba(imodel.alignment_ins
Ins
p477
(dp478
g27
S'sick'
p479
sg32
g54
sba(imodel.alignment_eq
Eq
p480
(dp481
g14
S'n'
sg16
g57
sg18
S'n'
sg19
(dp482
g21
S'v'
sg22
S'r'
sg23
S'a'
sg24
S'n'
ssg25
S'cat'
p483
sg27
g483
sg28
I1
sg29
I2
sg30
g470
sg31
g470
sg32
g33
sg34
g57
sba(imodel.alignment_del
Del
p484
(dp485
g31
g471
sg32
g86
sba(imodel.alignment_del
Del
p486
(dp487
g31
S'a'
sg32
g86
sba(imodel.alignment_del
Del
p488
(dp489
g31
g472
sg32
g86
sbasg60
(lp490
S'a'
ag479
ag483
asba(imodel.training_problem
Training_problem
p491
(dp492
g4
(lp493
S'his'
p494
aS'Stratocaster'
p495
asg10
(lp496
(imodel.alignment_eq
Eq
p497
(dp498
g14
g15
sg16
S'PRP$'
p499
sg18
g15
sg19
(dp500
g21
S'v'
sg22
S'r'
sg23
S'a'
sg24
S'n'
ssg25
S'his'
p501
sg27
g501
sg28
I0
sg29
I0
sg30
g494
sg31
g494
sg32
g33
sg34
g499
sbag35
(g36
g37
NtRp502
(dp503
g14
S'n'
sg16
g48
sg18
S'n'
sg19
(dp504
g21
S'v'
sg22
S'r'
sg23
S'a'
sg24
S'n'
ssg25
S'guitar'
p505
sg27
g505
sg28
I1
sg29
I1
sg30
g495
sg31
g495
sg32
g44
sg34
g57
sbasg60
(lp506
g501
ag505
asba(imodel.training_problem
Training_problem
p507
(dp508
g4
(lp509
S'musical'
p510
aS'instrument'
p511
asg10
(lp512
g35
(g36
g37
NtRp513
(dp514
g14
S'n'
sg16
g57
sg18
S'n'
sg19
(dp515
g21
S'v'
sg22
S'r'
sg23
S'a'
sg24
S'n'
ssg25
S'guitar'
p516
sg27
g516
sg28
I1
sg29
I0
sg30
g511
sg31
g511
sg32
g44
sg34
g57
sba(imodel.alignment_del
Del
p517
(dp518
g31
g510
sg32
g86
sbasg60
(lp519
g516
asba(imodel.training_problem
Training_problem
p520
(dp521
g4
(lp522
S'crepuscular'
p523
aS'mammals'
p524
asg10
(lp525
g35
(g36
g37
NtRp526
(dp527
g14
S'n'
sg16
g77
sg18
S'n'
sg19
(dp528
g21
S'v'
sg22
S'r'
sg23
S'a'
sg24
S'n'
ssg25
S'cat'
p529
sg27
S'cats'
p530
sg28
I1
sg29
I0
sg30
S'mammal'
p531
sg31
g524
sg32
g44
sg34
g77
sba(imodel.alignment_del
Del
p532
(dp533
g31
g523
sg32
g86
sbasg60
(lp534
g530
asba(imodel.training_problem
Training_problem
p535
(dp536
g4
(lp537
S'the'
p538
aS'tasty'
p539
aS'cheeseburger'
p540
asg10
(lp541
g35
(g36
g37
NtRp542
(dp543
g14
g15
sg16
g17
sg18
g15
sg19
(dp544
g21
S'v'
sg22
S'r'
sg23
S'a'
sg24
S'n'
ssg25
S'a'
sg27
S'a'
sg28
I0
sg29
I0
sg30
g538
sg31
g538
sg32
g44
sg34
g17
sba(imodel.alignment_eq
Eq
p545
(dp546
g14
S'n'
sg16
g57
sg18
S'n'
sg19
(dp547
g21
S'v'
sg22
S'r'
sg23
S'a'
sg24
S'n'
ssg25
S'cheeseburger'
p548
sg27
g548
sg28
I2
sg29
I1
sg30
g540
sg31
g540
sg32
g33
sg34
g57
sba(imodel.alignment_del
Del
p549
(dp550
g31
g539
sg32
g86
sbasg60
(lp551
S'a'
ag548
asba(imodel.training_problem
Training_problem
p552
(dp553
g4
(lp554
S'some'
p555
aS'lunch'
p556
asg10
(lp557
g35
(g36
g37
NtRp558
(dp559
g14
g15
sg16
g17
sg18
g15
sg19
(dp560
g21
S'v'
sg22
S'r'
sg23
S'a'
sg24
S'n'
ssg25
S'a'
sg27
S'a'
sg28
I0
sg29
I0
sg30
g555
sg31
g555
sg32
g44
sg34
g17
sba(imodel.alignment_ins
Ins
p561
(dp562
g27
S'delicious'
p563
sg32
g54
sbag35
(g36
g37
NtRp564
(dp565
g14
S'n'
sg16
g57
sg18
S'n'
sg19
(dp566
g21
S'v'
sg22
S'r'
sg23
S'a'
sg24
S'n'
ssg25
S'sandwich'
p567
sg27
g567
sg28
I1
sg29
I2
sg30
g556
sg31
g556
sg32
g44
sg34
g57
sbasg60
(lp568
S'a'
ag563
ag567
asba(imodel.training_problem
Training_problem
p569
(dp570
g4
(lp571
S'a'
aS'great'
p572
aS'meal'
p573
asg10
(lp574
(imodel.alignment_eq
Eq
p575
(dp576
g14
g15
sg16
g17
sg18
g15
sg19
(dp577
g21
S'v'
sg22
S'r'
sg23
S'a'
sg24
S'n'
ssg25
S'a'
sg27
S'a'
sg28
I0
sg29
I0
sg30
S'a'
sg31
S'a'
sg32
g33
sg34
g17
sbag35
(g36
g37
NtRp578
(dp579
g14
S'a'
sg16
g40
sg18
S'n'
sg19
(dp580
g21
S'v'
sg22
S'r'
sg23
S'a'
sg24
S'n'
ssg25
S'meal'
p581
sg27
g581
sg28
I1
sg29
I1
sg30
g572
sg31
g572
sg32
g44
sg34
g57
sba(imodel.alignment_del
Del
p582
(dp583
g31
g573
sg32
g86
sbasg60
(lp584
S'a'
ag581
asba(imodel.training_problem
Training_problem
p585
(dp586
g4
(lp587
S'Christmas'
p588
asg10
(lp589
(imodel.alignment_ins
Ins
p590
(dp591
g27
S'the'
p592
sg32
g54
sbag35
(g36
g37
NtRp593
(dp594
g14
S'n'
sg16
g48
sg18
S'n'
sg19
(dp595
g21
S'v'
sg22
S'r'
sg23
S'a'
sg24
S'n'
ssg25
S'holiday'
p596
sg27
S'holidays'
p597
sg28
I0
sg29
I1
sg30
g588
sg31
g588
sg32
g44
sg34
g77
sbasg60
(lp598
g592
ag597
asba(imodel.training_problem
Training_problem
p599
(dp600
g4
(lp601
S'the'
p602
aS'children'
p603
asg10
(lp604
(imodel.alignment_eq
Eq
p605
(dp606
g14
g15
sg16
g17
sg18
g15
sg19
(dp607
g21
S'v'
sg22
S'r'
sg23
S'a'
sg24
S'n'
ssg25
S'the'
p608
sg27
g608
sg28
I0
sg29
I0
sg30
g602
sg31
g602
sg32
g33
sg34
g17
sbag35
(g36
g37
NtRp609
(dp610
g14
S'n'
sg16
g77
sg18
S'n'
sg19
(dp611
g21
S'v'
sg22
S'r'
sg23
S'a'
sg24
S'n'
ssg25
S'kid'
p612
sg27
S'kids'
p613
sg28
I1
sg29
I1
sg30
S'child'
p614
sg31
g603
sg32
g44
sg34
g77
sbasg60
(lp615
g608
ag613
asba(imodel.training_problem
Training_problem
p616
(dp617
g4
(lp618
S'those'
p619
aS'children'
p620
asg10
(lp621
(imodel.alignment_eq
Eq
p622
(dp623
g14
g15
sg16
g17
sg18
g15
sg19
(dp624
g21
S'v'
sg22
S'r'
sg23
S'a'
sg24
S'n'
ssg25
S'those'
p625
sg27
g625
sg28
I0
sg29
I0
sg30
g619
sg31
g619
sg32
g33
sg34
g17
sba(imodel.alignment_ins
Ins
p626
(dp627
g27
S'meddling'
p628
sg32
g54
sbag35
(g36
g37
NtRp629
(dp630
g14
S'n'
sg16
g77
sg18
S'n'
sg19
(dp631
g21
S'v'
sg22
S'r'
sg23
S'a'
sg24
S'n'
ssg25
S'kid'
p632
sg27
S'kids'
p633
sg28
I1
sg29
I2
sg30
g614
sg31
g620
sg32
g44
sg34
g77
sbasg60
(lp634
g625
ag628
ag633
asba(imodel.training_problem
Training_problem
p635
(dp636
g4
(lp637
S'the'
p638
aS'kids'
p639
aS'next'
p640
aS'door'
p641
asg10
(lp642
(imodel.alignment_eq
Eq
p643
(dp644
g14
g15
sg16
g17
sg18
g15
sg19
(dp645
g21
S'v'
sg22
S'r'
sg23
S'a'
sg24
S'n'
ssg25
S'the'
p646
sg27
g646
sg28
I0
sg29
I0
sg30
g638
sg31
g638
sg32
g33
sg34
g17
sbag35
(g36
g37
NtRp647
(dp648
g14
S'n'
sg16
g77
sg18
S'n'
sg19
(dp649
g21
S'v'
sg22
S'r'
sg23
S'a'
sg24
S'n'
ssg25
S'brat'
p650
sg27
S'brats'
p651
sg28
I1
sg29
I1
sg30
S'kid'
p652
sg31
g639
sg32
g44
sg34
g77
sba(imodel.alignment_eq
Eq
p653
(dp654
g14
g15
sg16
S'IN'
p655
sg18
g15
sg19
(dp656
g21
S'v'
sg22
S'r'
sg23
S'a'
sg24
S'n'
ssg25
S'next'
p657
sg27
g657
sg28
I2
sg29
I2
sg30
g640
sg31
g640
sg32
g33
sg34
g655
sba(imodel.alignment_eq
Eq
p658
(dp659
g14
S'n'
sg16
g57
sg18
S'n'
sg19
(dp660
g21
S'v'
sg22
S'r'
sg23
S'a'
sg24
S'n'
ssg25
S'door'
p661
sg27
g661
sg28
I3
sg29
I3
sg30
g641
sg31
g641
sg32
g33
sg34
g57
sbasg60
(lp662
g646
ag651
ag657
ag661
asba(imodel.training_problem
Training_problem
p663
(dp664
g4
(lp665
S'the'
p666
aS'Democrats'
p667
asg10
(lp668
(imodel.alignment_eq
Eq
p669
(dp670
g14
g15
sg16
g17
sg18
g15
sg19
(dp671
g21
S'v'
sg22
S'r'
sg23
S'a'
sg24
S'n'
ssg25
S'the'
p672
sg27
g672
sg28
I0
sg29
I0
sg30
g666
sg31
g666
sg32
g33
sg34
g17
sbag35
(g36
g37
NtRp673
(dp674
g14
S'n'
sg16
S'NNPS'
p675
sg18
S'n'
sg19
(dp676
g21
S'v'
sg22
S'r'
sg23
S'a'
sg24
S'n'
ssg25
S'Republicans'
p677
sg27
g677
sg28
I1
sg29
I1
sg30
g667
sg31
g667
sg32
g44
sg34
g675
sbasg60
(lp678
g672
ag677
asba(imodel.training_problem
Training_problem
p679
(dp680
g4
(lp681
S'a'
aS'phone'
p682
asg10
(lp683
g35
(g36
g37
NtRp684
(dp685
g14
g15
sg16
g17
sg18
g15
sg19
(dp686
g21
S'v'
sg22
S'r'
sg23
S'a'
sg24
S'n'
ssg25
S'an'
p687
sg27
g687
sg28
I0
sg29
I0
sg30
S'a'
sg31
S'a'
sg32
g44
sg34
g17
sbag35
(g36
g37
NtRp688
(dp689
g14
S'n'
sg16
g57
sg18
S'n'
sg19
(dp690
g21
S'v'
sg22
S'r'
sg23
S'a'
sg24
S'n'
ssg25
S'iPhone'
p691
sg27
g691
sg28
I1
sg29
I1
sg30
g682
sg31
g682
sg32
g44
sg34
g57
sbasg60
(lp692
g687
ag691
asba(imodel.training_problem
Training_problem
p693
(dp694
g4
(lp695
S'some'
p696
aS'animals'
p697
asg10
(lp698
(imodel.alignment_eq
Eq
p699
(dp700
g14
g15
sg16
g17
sg18
g15
sg19
(dp701
g21
S'v'
sg22
S'r'
sg23
S'a'
sg24
S'n'
ssg25
S'some'
p702
sg27
g702
sg28
I0
sg29
I0
sg30
g696
sg31
g696
sg32
g33
sg34
g17
sbag35
(g36
g37
NtRp703
(dp704
g14
S'n'
sg16
g77
sg18
S'n'
sg19
(dp705
g21
S'v'
sg22
S'r'
sg23
S'a'
sg24
S'n'
ssg25
S'bird'
p706
sg27
S'birds'
p707
sg28
I1
sg29
I1
sg30
S'animal'
p708
sg31
g697
sg32
g44
sg34
g77
sbasg60
(lp709
g702
ag707
asba(imodel.training_problem
Training_problem
p710
(dp711
g4
(lp712
S'smash'
p713
aS'the'
p714
aS'evil'
p715
aS'empire'
p716
asg10
(lp717
(imodel.alignment_eq
Eq
p718
(dp719
g14
g15
sg16
g17
sg18
g15
sg19
(dp720
g21
S'v'
sg22
S'r'
sg23
S'a'
sg24
S'n'
ssg25
S'the'
p721
sg27
g721
sg28
I1
sg29
I0
sg30
g714
sg31
g714
sg32
g33
sg34
g17
sba(imodel.alignment_eq
Eq
p722
(dp723
g14
S'n'
sg16
g57
sg18
S'n'
sg19
(dp724
g21
S'v'
sg22
S'r'
sg23
S'a'
sg24
S'n'
ssg25
S'empire'
p725
sg27
g725
sg28
I3
sg29
I1
sg30
g716
sg31
g716
sg32
g33
sg34
g57
sba(imodel.alignment_del
Del
p726
(dp727
g31
g713
sg32
g86
sba(imodel.alignment_del
Del
p728
(dp729
g31
g715
sg32
g86
sbasg60
(lp730
g721
ag725
asba(imodel.training_problem
Training_problem
p731
(dp732
g4
(lp733
S'beat'
p734
aS'the'
p735
aS'Nets'
p736
asg10
(lp737
(imodel.alignment_eq
Eq
p738
(dp739
g14
g15
sg16
g17
sg18
g15
sg19
(dp740
g21
S'v'
sg22
S'r'
sg23
S'a'
sg24
S'n'
ssg25
S'the'
p741
sg27
g741
sg28
I1
sg29
I0
sg30
g735
sg31
g735
sg32
g33
sg34
g17
sba(imodel.alignment_eq
Eq
p742
(dp743
g14
S'n'
sg16
g675
sg18
S'n'
sg19
(dp744
g21
S'v'
sg22
S'r'
sg23
S'a'
sg24
S'n'
ssg25
S'Nets'
p745
sg27
g745
sg28
I2
sg29
I1
sg30
g736
sg31
g736
sg32
g33
sg34
g675
sba(imodel.alignment_del
Del
p746
(dp747
g31
g734
sg32
g86
sbasg60
(lp748
g741
ag745
asba(imodel.training_problem
Training_problem
p749
(dp750
g4
(lp751
S'Duke'
p752
aS'University'
p753
asg10
(lp754
(imodel.alignment_eq
Eq
p755
(dp756
g14
S'n'
sg16
g48
sg18
S'n'
sg19
(dp757
g21
S'v'
sg22
S'r'
sg23
S'a'
sg24
S'n'
ssg25
S'Duke'
p758
sg27
g758
sg28
I0
sg29
I0
sg30
g752
sg31
g752
sg32
g33
sg34
g48
sba(imodel.alignment_del
Del
p759
(dp760
g31
g753
sg32
g86
sbasg60
(lp761
g758
asba(imodel.training_problem
Training_problem
p762
(dp763
g4
(lp764
S'Duke'
p765
aS'University'
p766
asg10
(lp767
g35
(g36
g37
NtRp768
(dp769
g14
S'n'
sg16
g48
sg18
S'n'
sg19
(dp770
g21
S'v'
sg22
S'r'
sg23
S'a'
sg24
S'n'
ssg25
S'Dook'
p771
sg27
g771
sg28
I0
sg29
I0
sg30
g765
sg31
g765
sg32
g44
sg34
g48
sba(imodel.alignment_del
Del
p772
(dp773
g31
g766
sg32
g86
sbasg60
(lp774
g771
asba(imodel.training_problem
Training_problem
p775
(dp776
g4
(lp777
S'the'
p778
aS'Duke'
p779
aS'Blue'
p780
aS'Devils'
p781
asg10
(lp782
(imodel.alignment_eq
Eq
p783
(dp784
g14
g15
sg16
g17
sg18
g15
sg19
(dp785
g21
S'v'
sg22
S'r'
sg23
S'a'
sg24
S'n'
ssg25
S'the'
p786
sg27
g786
sg28
I0
sg29
I0
sg30
g778
sg31
g778
sg32
g33
sg34
g17
sbag35
(g36
g37
NtRp787
(dp788
g14
S'n'
sg16
g48
sg18
S'a'
sg19
(dp789
g21
S'v'
sg22
S'r'
sg23
S'a'
sg24
S'n'
ssg25
S'blue'
p790
sg27
g790
sg28
I2
sg29
I1
sg30
g780
sg31
g780
sg32
g44
sg34
g40
sbag35
(g36
g37
NtRp791
(dp792
g14
S'n'
sg16
g48
sg18
S'n'
sg19
(dp793
g21
S'v'
sg22
S'r'
sg23
S'a'
sg24
S'n'
ssg25
S'devil'
p794
sg27
S'devils'
p795
sg28
I3
sg29
I2
sg30
g781
sg31
g781
sg32
g44
sg34
g77
sba(imodel.alignment_del
Del
p796
(dp797
g31
g779
sg32
g86
sbasg60
(lp798
g786
ag790
ag795
asba(imodel.training_problem
Training_problem
p799
(dp800
g4
(lp801
S'the'
p802
aS'Duke'
p803
aS'Blue'
p804
aS'Devils'
p805
asg10
(lp806
g35
(g36
g37
NtRp807
(dp808
g14
S'n'
sg16
g48
sg18
S'n'
sg19
(dp809
g21
S'v'
sg22
S'r'
sg23
S'a'
sg24
S'n'
ssg25
S'duke'
p810
sg27
g810
sg28
I1
sg29
I0
sg30
g803
sg31
g803
sg32
g44
sg34
g57
sba(imodel.alignment_del
Del
p811
(dp812
g31
g802
sg32
g86
sba(imodel.alignment_del
Del
p813
(dp814
g31
g804
sg32
g86
sba(imodel.alignment_del
Del
p815
(dp816
g31
g805
sg32
g86
sbasg60
(lp817
g810
asba(imodel.training_problem
Training_problem
p818
(dp819
g4
(lp820
S'a'
aS'tragic'
p821
aS'car'
p822
aS'accident'
p823
asg10
(lp824
g35
(g36
g37
NtRp825
(dp826
g14
g15
sg16
g17
sg18
g15
sg19
(dp827
g21
S'v'
sg22
S'r'
sg23
S'a'
sg24
S'n'
ssg25
S'an'
p828
sg27
g828
sg28
I0
sg29
I0
sg30
S'a'
sg31
S'a'
sg32
g44
sg34
g17
sba(imodel.alignment_eq
Eq
p829
(dp830
g14
S'n'
sg16
g57
sg18
S'n'
sg19
(dp831
g21
S'v'
sg22
S'r'
sg23
S'a'
sg24
S'n'
ssg25
S'accident'
p832
sg27
g832
sg28
I3
sg29
I1
sg30
g823
sg31
g823
sg32
g33
sg34
g57
sba(imodel.alignment_del
Del
p833
(dp834
g31
g821
sg32
g86
sba(imodel.alignment_del
Del
p835
(dp836
g31
g822
sg32
g86
sbasg60
(lp837
g828
ag832
asba(imodel.training_problem
Training_problem
p838
(dp839
g4
(lp840
S'a'
aS'mysterious'
p841
aS'death'
p842
asg10
(lp843
(imodel.alignment_eq
Eq
p844
(dp845
g14
g15
sg16
g17
sg18
g15
sg19
(dp846
g21
S'v'
sg22
S'r'
sg23
S'a'
sg24
S'n'
ssg25
S'a'
sg27
S'a'
sg28
I0
sg29
I0
sg30
S'a'
sg31
S'a'
sg32
g33
sg34
g17
sbag35
(g36
g37
NtRp847
(dp848
g14
S'n'
sg16
g57
sg18
S'n'
sg19
(dp849
g21
S'v'
sg22
S'r'
sg23
S'a'
sg24
S'n'
ssg25
S'murder'
p850
sg27
g850
sg28
I2
sg29
I1
sg30
g842
sg31
g842
sg32
g44
sg34
g57
sba(imodel.alignment_del
Del
p851
(dp852
g31
g841
sg32
g86
sbasg60
(lp853
S'a'
ag850
asba(imodel.training_problem
Training_problem
p854
(dp855
g4
(lp856
S'the'
p857
aS'best'
p858
aS'sandwich'
p859
aS'on'
p860
aS'god'
p861
aS"'s"
p862
aS'green'
p863
aS'earth'
p864
asg10
(lp865
(imodel.alignment_eq
Eq
p866
(dp867
g14
g15
sg16
g17
sg18
g15
sg19
(dp868
g21
S'v'
sg22
S'r'
sg23
S'a'
sg24
S'n'
ssg25
S'the'
p869
sg27
g869
sg28
I0
sg29
I0
sg30
g857
sg31
g857
sg32
g33
sg34
g17
sbag35
(g36
g37
NtRp870
(dp871
g14
S'a'
sg16
g45
sg18
S'a'
sg19
(dp872
g21
S'v'
sg22
S'r'
sg23
S'a'
sg24
S'n'
ssg25
S'great'
p873
sg27
S'greatest'
p874
sg28
I1
sg29
I1
sg30
g858
sg31
g858
sg32
g44
sg34
g45
sba(imodel.alignment_eq
Eq
p875
(dp876
g14
S'n'
sg16
g57
sg18
S'n'
sg19
(dp877
g21
S'v'
sg22
S'r'
sg23
S'a'
sg24
S'n'
ssg25
S'sandwich'
p878
sg27
g878
sg28
I2
sg29
I2
sg30
g859
sg31
g859
sg32
g33
sg34
g57
sba(imodel.alignment_del
Del
p879
(dp880
g31
g860
sg32
g86
sba(imodel.alignment_del
Del
p881
(dp882
g31
g861
sg32
g86
sba(imodel.alignment_del
Del
p883
(dp884
g31
g862
sg32
g86
sba(imodel.alignment_del
Del
p885
(dp886
g31
g863
sg32
g86
sba(imodel.alignment_del
Del
p887
(dp888
g31
g864
sg32
g86
sbasg60
(lp889
g869
ag874
ag878
asba(imodel.training_problem
Training_problem
p890
(dp891
g4
(lp892
S'a'
aS'nicely'
p893
aS'tailored'
p894
aS'suit'
p895
asg10
(lp896
(imodel.alignment_eq
Eq
p897
(dp898
g14
g15
sg16
g17
sg18
g15
sg19
(dp899
g21
S'v'
sg22
S'r'
sg23
S'a'
sg24
S'n'
ssg25
S'a'
sg27
S'a'
sg28
I0
sg29
I0
sg30
S'a'
sg31
S'a'
sg32
g33
sg34
g17
sba(imodel.alignment_eq
Eq
p900
(dp901
g14
S'n'
sg16
g57
sg18
S'n'
sg19
(dp902
g21
S'v'
sg22
S'r'
sg23
S'a'
sg24
S'n'
ssg25
S'suit'
p903
sg27
g903
sg28
I3
sg29
I1
sg30
g895
sg31
g895
sg32
g33
sg34
g57
sba(imodel.alignment_ins
Ins
p904
(dp905
g27
S'from'
p906
sg32
g54
sba(imodel.alignment_ins
Ins
p907
(dp908
g27
S'J.'
p909
sg32
g54
sba(imodel.alignment_ins
Ins
p910
(dp911
g27
S'Crew'
p912
sg32
g54
sba(imodel.alignment_del
Del
p913
(dp914
g31
g893
sg32
g86
sba(imodel.alignment_del
Del
p915
(dp916
g31
g894
sg32
g86
sbasg60
(lp917
S'a'
ag903
ag906
ag909
ag912
asba(imodel.training_problem
Training_problem
p918
(dp919
g4
(lp920
S'an'
p921
aS'adorable'
p922
aS'kitten'
p923
asg10
(lp924
g35
(g36
g37
NtRp925
(dp926
g14
g15
sg16
g17
sg18
g15
sg19
(dp927
g21
S'v'
sg22
S'r'
sg23
S'a'
sg24
S'n'
ssg25
S'a'
sg27
S'a'
sg28
I0
sg29
I0
sg30
g921
sg31
g921
sg32
g44
sg34
g17
sbag35
(g36
g37
NtRp928
(dp929
g14
S'a'
sg16
g40
sg18
S'n'
sg19
(dp930
g21
S'v'
sg22
S'r'
sg23
S'a'
sg24
S'n'
ssg25
S'tiny'
p931
sg27
g931
sg28
I1
sg29
I1
sg30
g922
sg31
g922
sg32
g44
sg34
g57
sba(imodel.alignment_eq
Eq
p932
(dp933
g14
S'n'
sg16
g57
sg18
S'v'
sg19
(dp934
g21
S'v'
sg22
S'r'
sg23
S'a'
sg24
S'n'
ssg25
S'kitten'
p935
sg27
g935
sg28
I2
sg29
I2
sg30
g923
sg31
g923
sg32
g33
sg34
g149
sbasg60
(lp936
S'a'
ag931
ag935
asba(imodel.training_problem
Training_problem
p937
(dp938
g4
(lp939
S'a'
aS'finely'
p940
aS'crafted'
p941
aS'writing'
p942
aS'utensil'
p943
asg10
(lp944
(imodel.alignment_eq
Eq
p945
(dp946
g14
g15
sg16
g17
sg18
g15
sg19
(dp947
g21
S'v'
sg22
S'r'
sg23
S'a'
sg24
S'n'
ssg25
S'a'
sg27
S'a'
sg28
I0
sg29
I0
sg30
S'a'
sg31
S'a'
sg32
g33
sg34
g17
sbag35
(g36
g37
NtRp948
(dp949
g14
S'r'
sg16
S'RB'
p950
sg18
S'n'
sg19
(dp951
g21
S'v'
sg22
S'r'
sg23
S'a'
sg24
S'n'
ssg25
S'luxury'
p952
sg27
g952
sg28
I1
sg29
I1
sg30
g940
sg31
g940
sg32
g44
sg34
g57
sbag35
(g36
g37
NtRp953
(dp954
g14
S'n'
sg16
g57
sg18
S'n'
sg19
(dp955
g21
S'v'
sg22
S'r'
sg23
S'a'
sg24
S'n'
ssg25
S'pen'
p956
sg27
g956
sg28
I4
sg29
I2
sg30
g943
sg31
g943
sg32
g44
sg34
g57
sba(imodel.alignment_del
Del
p957
(dp958
g31
g941
sg32
g86
sba(imodel.alignment_del
Del
p959
(dp960
g31
g942
sg32
g86
sbasg60
(lp961
S'a'
ag952
ag956
asba(imodel.training_problem
Training_problem
p962
(dp963
g4
(lp964
S'the'
p965
aS'ramshackle'
p966
aS'town'
p967
asg10
(lp968
(imodel.alignment_eq
Eq
p969
(dp970
g14
g15
sg16
g17
sg18
g15
sg19
(dp971
g21
S'v'
sg22
S'r'
sg23
S'a'
sg24
S'n'
ssg25
S'the'
p972
sg27
g972
sg28
I0
sg29
I0
sg30
g965
sg31
g965
sg32
g33
sg34
g17
sbag35
(g36
g37
NtRp973
(dp974
g14
S'n'
sg16
g57
sg18
S'v'
sg19
(dp975
g21
S'v'
sg22
S'r'
sg23
S'a'
sg24
S'n'
ssg25
S'dilapidate'
p976
sg27
S'dilapidated'
p977
sg28
I1
sg29
I1
sg30
g966
sg31
g966
sg32
g44
sg34
g149
sba(imodel.alignment_eq
Eq
p978
(dp979
g14
S'n'
sg16
g57
sg18
S'n'
sg19
(dp980
g21
S'v'
sg22
S'r'
sg23
S'a'
sg24
S'n'
ssg25
S'town'
p981
sg27
g981
sg28
I2
sg29
I2
sg30
g967
sg31
g967
sg32
g33
sg34
g57
sbasg60
(lp982
g972
ag977
ag981
asba(imodel.training_problem
Training_problem
p983
(dp984
g4
(lp985
S'the'
p986
aS'ramshackle'
p987
aS'town'
p988
asg10
(lp989
(imodel.alignment_eq
Eq
p990
(dp991
g14
g15
sg16
g17
sg18
g15
sg19
(dp992
g21
S'v'
sg22
S'r'
sg23
S'a'
sg24
S'n'
ssg25
S'the'
p993
sg27
g993
sg28
I0
sg29
I0
sg30
g986
sg31
g986
sg32
g33
sg34
g17
sba(imodel.alignment_eq
Eq
p994
(dp995
g14
S'n'
sg16
g57
sg18
S'n'
sg19
(dp996
g21
S'v'
sg22
S'r'
sg23
S'a'
sg24
S'n'
ssg25
S'ramshackle'
p997
sg27
g997
sg28
I1
sg29
I1
sg30
g987
sg31
g987
sg32
g33
sg34
g57
sbag35
(g36
g37
NtRp998
(dp999
g14
S'n'
sg16
g57
sg18
S'n'
sg19
(dp1000
g21
S'v'
sg22
S'r'
sg23
S'a'
sg24
S'n'
ssg25
S'hamlet'
p1001
sg27
g1001
sg28
I2
sg29
I2
sg30
g988
sg31
g988
sg32
g44
sg34
g57
sbasg60
(lp1002
g993
ag997
ag1001
asba(imodel.training_problem
Training_problem
p1003
(dp1004
g4
(lp1005
S'the'
p1006
aS'ramshackle'
p1007
aS'car'
p1008
asg10
(lp1009
g35
(g36
g37
NtRp1010
(dp1011
g14
g15
sg16
g17
sg18
g15
sg19
(dp1012
g21
S'v'
sg22
S'r'
sg23
S'a'
sg24
S'n'
ssg25
S'a'
sg27
S'a'
sg28
I0
sg29
I0
sg30
g1006
sg31
g1006
sg32
g44
sg34
g17
sbag35
(g36
g37
NtRp1013
(dp1014
g14
S'n'
sg16
g57
sg18
S'n'
sg19
(dp1015
g21
S'v'
sg22
S'r'
sg23
S'a'
sg24
S'n'
ssg25
S'rickety'
p1016
sg27
g1016
sg28
I1
sg29
I1
sg30
g1007
sg31
g1007
sg32
g44
sg34
g57
sbag35
(g36
g37
NtRp1017
(dp1018
g14
S'n'
sg16
g57
sg18
S'n'
sg19
(dp1019
g21
S'v'
sg22
S'r'
sg23
S'a'
sg24
S'n'
ssg25
S'truck'
p1020
sg27
g1020
sg28
I2
sg29
I2
sg30
g1008
sg31
g1008
sg32
g44
sg34
g57
sbasg60
(lp1021
S'a'
ag1016
ag1020
asba(imodel.training_problem
Training_problem
p1022
(dp1023
g4
(lp1024
S'as'
p1025
aS'Democrats'
p1026
asg10
(lp1027
g35
(g36
g37
NtRp1028
(dp1029
g14
g15
sg16
g655
sg18
S'n'
sg19
(dp1030
g21
S'v'
sg22
S'r'
sg23
S'a'
sg24
S'n'
ssg25
S'Democrats'
p1031
sg27
g1031
sg28
I0
sg29
I0
sg30
g1025
sg31
g1025
sg32
g44
sg34
g77
sba(imodel.alignment_del
Del
p1032
(dp1033
g31
g1026
sg32
g86
sbasg60
(lp1034
g1031
asba(imodel.training_problem
Training_problem
p1035
(dp1036
g4
(lp1037
S'a'
aS'group'
p1038
aS'associated'
p1039
aS'with'
p1040
aS'and'
p1041
aS'funded'
p1042
aS'by'
p1043
aS'the'
p1044
aS'National'
p1045
aS'Rifle'
p1046
aS'Association'
p1047
asg10
(lp1048
(imodel.alignment_eq
Eq
p1049
(dp1050
g14
g15
sg16
g17
sg18
g15
sg19
(dp1051
g21
S'v'
sg22
S'r'
sg23
S'a'
sg24
S'n'
ssg25
S'a'
sg27
S'a'
sg28
I0
sg29
I0
sg30
S'a'
sg31
S'a'
sg32
g33
sg34
g17
sba(imodel.alignment_eq
Eq
p1052
(dp1053
g14
S'n'
sg16
g57
sg18
S'n'
sg19
(dp1054
g21
S'v'
sg22
S'r'
sg23
S'a'
sg24
S'n'
ssg25
S'group'
p1055
sg27
g1055
sg28
I1
sg29
I1
sg30
g1038
sg31
g1038
sg32
g33
sg34
g57
sbag35
(g36
g37
NtRp1056
(dp1057
g14
S'v'
sg16
g149
sg18
S'v'
sg19
(dp1058
g21
S'v'
sg22
S'r'
sg23
S'a'
sg24
S'n'
ssg25
S'affiliate'
p1059
sg27
S'affiliated'
p1060
sg28
I2
sg29
I2
sg30
S'associate'
p1061
sg31
g1039
sg32
g44
sg34
g149
sba(imodel.alignment_eq
Eq
p1062
(dp1063
g14
g15
sg16
g655
sg18
g15
sg19
(dp1064
g21
S'v'
sg22
S'r'
sg23
S'a'
sg24
S'n'
ssg25
S'with'
p1065
sg27
g1065
sg28
I3
sg29
I3
sg30
g1040
sg31
g1040
sg32
g33
sg34
g655
sba(imodel.alignment_eq
Eq
p1066
(dp1067
g14
g15
sg16
g17
sg18
g15
sg19
(dp1068
g21
S'v'
sg22
S'r'
sg23
S'a'
sg24
S'n'
ssg25
S'the'
p1069
sg27
g1069
sg28
I7
sg29
I4
sg30
g1044
sg31
g1044
sg32
g33
sg34
g17
sba(imodel.alignment_eq
Eq
p1070
(dp1071
g14
S'n'
sg16
g48
sg18
S'n'
sg19
(dp1072
g21
S'v'
sg22
S'r'
sg23
S'a'
sg24
S'n'
ssg25
S'National'
p1073
sg27
g1073
sg28
I8
sg29
I5
sg30
g1045
sg31
g1045
sg32
g33
sg34
g48
sba(imodel.alignment_eq
Eq
p1074
(dp1075
g14
S'n'
sg16
g48
sg18
S'n'
sg19
(dp1076
g21
S'v'
sg22
S'r'
sg23
S'a'
sg24
S'n'
ssg25
S'Rifle'
p1077
sg27
g1077
sg28
I9
sg29
I6
sg30
g1046
sg31
g1046
sg32
g33
sg34
g48
sba(imodel.alignment_eq
Eq
p1078
(dp1079
g14
S'n'
sg16
g48
sg18
S'n'
sg19
(dp1080
g21
S'v'
sg22
S'r'
sg23
S'a'
sg24
S'n'
ssg25
S'Association'
p1081
sg27
g1081
sg28
I10
sg29
I7
sg30
g1047
sg31
g1047
sg32
g33
sg34
g48
sba(imodel.alignment_del
Del
p1082
(dp1083
g31
g1041
sg32
g86
sba(imodel.alignment_del
Del
p1084
(dp1085
g31
g1042
sg32
g86
sba(imodel.alignment_del
Del
p1086
(dp1087
g31
g1043
sg32
g86
sbasg60
(lp1088
S'a'
ag1055
ag1060
ag1065
ag1069
ag1073
ag1077
ag1081
asba(imodel.training_problem
Training_problem
p1089
(dp1090
g4
(lp1091
S'its'
p1092
aS'own'
p1093
aS'proposal'
p1094
aS'for'
p1095
aS'reducing'
p1096
aS'mass'
p1097
aS'shootings'
p1098
aS'in'
p1099
aS'schools'
p1100
asg10
(lp1101
(imodel.alignment_ins
Ins
p1102
(dp1103
g27
S'a'
sg32
g54
sbag35
(g36
g37
NtRp1104
(dp1105
g14
S'n'
sg16
g57
sg18
S'n'
sg19
(dp1106
g21
S'v'
sg22
S'r'
sg23
S'a'
sg24
S'n'
ssg25
S'plan'
p1107
sg27
g1107
sg28
I2
sg29
I1
sg30
g1094
sg31
g1094
sg32
g44
sg34
g57
sba(imodel.alignment_ins
Ins
p1108
(dp1109
g27
S'to'
p1110
sg32
g54
sbag35
(g36
g37
NtRp1111
(dp1112
g14
S'n'
sg16
g57
sg18
S'v'
sg19
(dp1113
g21
S'v'
sg22
S'r'
sg23
S'a'
sg24
S'n'
ssg25
S'reduce'
p1114
sg27
g1114
sg28
I4
sg29
I3
sg30
g1096
sg31
g1096
sg32
g44
sg34
S'VB'
p1115
sbag35
(g36
g37
NtRp1116
(dp1117
g14
S'n'
sg16
g77
sg18
S'n'
sg19
(dp1118
g21
S'v'
sg22
S'r'
sg23
S'a'
sg24
S'n'
ssg25
S'school'
p1119
sg27
g1119
sg28
I8
sg29
I4
sg30
S'school'
p1120
sg31
g1100
sg32
g44
sg34
g57
sba(imodel.alignment_eq
Eq
p1121
(dp1122
g14
S'n'
sg16
g77
sg18
S'n'
sg19
(dp1123
g21
S'v'
sg22
S'r'
sg23
S'a'
sg24
S'n'
ssg25
S'shooting'
p1124
sg27
S'shootings'
p1125
sg28
I6
sg29
I5
sg30
S'shooting'
p1126
sg31
g1098
sg32
g33
sg34
g77
sba(imodel.alignment_del
Del
p1127
(dp1128
g31
g1092
sg32
g86
sba(imodel.alignment_del
Del
p1129
(dp1130
g31
g1093
sg32
g86
sba(imodel.alignment_del
Del
p1131
(dp1132
g31
g1095
sg32
g86
sba(imodel.alignment_del
Del
p1133
(dp1134
g31
g1097
sg32
g86
sba(imodel.alignment_del
Del
p1135
(dp1136
g31
g1099
sg32
g86
sbasg60
(lp1137
S'a'
ag1107
ag1110
ag1114
ag1119
ag1125
asba(imodel.training_problem
Training_problem
p1138
(dp1139
g4
(lp1140
S'the'
p1141
aS'band'
p1142
aS'wilco'
p1143
asg10
(lp1144
(imodel.alignment_ins
Ins
p1145
(dp1146
g27
S'country'
p1147
sg32
g54
sba(imodel.alignment_eq
Eq
p1148
(dp1149
g14
S'n'
sg16
g57
sg18
S'v'
sg19
(dp1150
g21
S'v'
sg22
S'r'
sg23
S'a'
sg24
S'n'
ssg25
S'band'
p1151
sg27
g1151
sg28
I1
sg29
I1
sg30
g1142
sg31
g1142
sg32
g33
sg34
g278
sba(imodel.alignment_eq
Eq
p1152
(dp1153
g14
S'n'
sg16
g57
sg18
S'n'
sg19
(dp1154
g21
S'v'
sg22
S'r'
sg23
S'a'
sg24
S'n'
ssg25
S'wilco'
p1155
sg27
g1155
sg28
I2
sg29
I2
sg30
g1143
sg31
g1143
sg32
g33
sg34
g57
sba(imodel.alignment_del
Del
p1156
(dp1157
g31
g1141
sg32
g86
sbasg60
(lp1158
g1147
ag1151
ag1155
asba(imodel.training_problem
Training_problem
p1159
(dp1160
g4
(lp1161
S'New'
p1162
aS'York'
p1163
aS'State'
p1164
aS'Senator'
p1165
asg10
(lp1166
(imodel.alignment_ins
Ins
p1167
(dp1168
g27
S'a'
sg32
g54
sbag35
(g36
g37
NtRp1169
(dp1170
g14
S'n'
sg16
g48
sg18
S'n'
sg19
(dp1171
g21
S'v'
sg22
S'r'
sg23
S'a'
sg24
S'n'
ssg25
S'state'
p1172
sg27
g1172
sg28
I2
sg29
I1
sg30
g1164
sg31
g1164
sg32
g44
sg34
g57
sbag35
(g36
g37
NtRp1173
(dp1174
g14
S'n'
sg16
g48
sg18
S'n'
sg19
(dp1175
g21
S'v'
sg22
S'r'
sg23
S'a'
sg24
S'n'
ssg25
S'senator'
p1176
sg27
g1176
sg28
I3
sg29
I2
sg30
g1165
sg31
g1165
sg32
g44
sg34
g57
sba(imodel.alignment_ins
Ins
p1177
(dp1178
g27
S'from'
p1179
sg32
g54
sba(imodel.alignment_eq
Eq
p1180
(dp1181
g14
S'n'
sg16
g48
sg18
S'n'
sg19
(dp1182
g21
S'v'
sg22
S'r'
sg23
S'a'
sg24
S'n'
ssg25
S'New'
p1183
sg27
g1183
sg28
I0
sg29
I4
sg30
g1162
sg31
g1162
sg32
g33
sg34
g48
sba(imodel.alignment_eq
Eq
p1184
(dp1185
g14
S'n'
sg16
g48
sg18
S'n'
sg19
(dp1186
g21
S'v'
sg22
S'r'
sg23
S'a'
sg24
S'n'
ssg25
S'York'
p1187
sg27
g1187
sg28
I1
sg29
I5
sg30
g1163
sg31
g1163
sg32
g33
sg34
g48
sbasg60
(lp1188
S'a'
ag1172
ag1176
ag1179
ag1183
ag1187
asba(imodel.training_problem
Training_problem
p1189
(dp1190
g4
(lp1191
S'A'
aS'top'
p1192
aS'New'
p1193
aS'York'
p1194
aS'Democrat'
p1195
asg10
(lp1196
(imodel.alignment_eq
Eq
p1197
(dp1198
g14
g15
sg16
g17
sg18
g15
sg19
(dp1199
g21
S'v'
sg22
S'r'
sg23
S'a'
sg24
S'n'
ssg25
S'A'
sg27
S'A'
sg28
I0
sg29
I0
sg30
S'A'
sg31
S'A'
sg32
g33
sg34
g17
sbag35
(g36
g37
NtRp1200
(dp1201
g14
S'n'
sg16
g48
sg18
S'a'
sg19
(dp1202
g21
S'v'
sg22
S'r'
sg23
S'a'
sg24
S'n'
ssg25
S'Democratic'
p1203
sg27
g1203
sg28
I4
sg29
I1
sg30
g1195
sg31
g1195
sg32
g44
sg34
g40
sba(imodel.alignment_ins
Ins
p1204
(dp1205
g27
S'state'
p1206
sg32
g54
sba(imodel.alignment_ins
Ins
p1207
(dp1208
g27
S'Senator'
p1209
sg32
g54
sba(imodel.alignment_ins
Ins
p1210
(dp1211
g27
S'for'
p1212
sg32
g54
sba(imodel.alignment_eq
Eq
p1213
(dp1214
g14
S'n'
sg16
g48
sg18
S'n'
sg19
(dp1215
g21
S'v'
sg22
S'r'
sg23
S'a'
sg24
S'n'
ssg25
S'New'
p1216
sg27
g1216
sg28
I2
sg29
I5
sg30
g1193
sg31
g1193
sg32
g33
sg34
g48
sba(imodel.alignment_eq
Eq
p1217
(dp1218
g14
S'n'
sg16
g48
sg18
S'n'
sg19
(dp1219
g21
S'v'
sg22
S'r'
sg23
S'a'
sg24
S'n'
ssg25
S'York'
p1220
sg27
g1220
sg28
I3
sg29
I6
sg30
g1194
sg31
g1194
sg32
g33
sg34
g48
sba(imodel.alignment_del
Del
p1221
(dp1222
g31
g1192
sg32
g86
sbasg60
(lp1223
S'A'
ag1203
ag1206
ag1209
ag1212
ag1216
ag1220
asba(imodel.training_problem
Training_problem
p1224
(dp1225
g4
(lp1226
S'Four'
p1227
aS'other'
p1228
aS'officials'
p1229
asg10
(lp1230
(imodel.alignment_eq
Eq
p1231
(dp1232
g14
g15
sg16
S'CD'
p1233
sg18
g15
sg19
(dp1234
g21
S'v'
sg22
S'r'
sg23
S'a'
sg24
S'n'
ssg25
S'Four'
p1235
sg27
g1235
sg28
I0
sg29
I0
sg30
g1227
sg31
g1227
sg32
g33
sg34
g1233
sba(imodel.alignment_eq
Eq
p1236
(dp1237
g14
S'a'
sg16
g40
sg18
S'a'
sg19
(dp1238
g21
S'v'
sg22
S'r'
sg23
S'a'
sg24
S'n'
ssg25
S'other'
p1239
sg27
g1239
sg28
I1
sg29
I1
sg30
g1228
sg31
g1228
sg32
g33
sg34
g40
sba(imodel.alignment_eq
Eq
p1240
(dp1241
g14
S'n'
sg16
g77
sg18
S'n'
sg19
(dp1242
g21
S'v'
sg22
S'r'
sg23
S'a'
sg24
S'n'
ssg25
S'official'
p1243
sg27
S'officials'
p1244
sg28
I2
sg29
I2
sg30
S'official'
p1245
sg31
g1229
sg32
g33
sg34
g77
sba(imodel.alignment_ins
Ins
p1246
(dp1247
g27
S'including'
p1248
sg32
g54
sba(imodel.alignment_ins
Ins
p1249
(dp1250
g27
S'the'
p1251
sg32
g54
sba(imodel.alignment_ins
Ins
p1252
(dp1253
g27
S'heads'
p1254
sg32
g54
sba(imodel.alignment_ins
Ins
p1255
(dp1256
g27
S'of'
p1257
sg32
g54
sba(imodel.alignment_ins
Ins
p1258
(dp1259
g27
S'the'
p1260
sg32
g54
sba(imodel.alignment_ins
Ins
p1261
(dp1262
g27
S'Republican'
p1263
sg32
g54
sba(imodel.alignment_ins
Ins
p1264
(dp1265
g27
S'party'
p1266
sg32
g54
sba(imodel.alignment_ins
Ins
p1267
(dp1268
g27
S'in'
p1269
sg32
g54
sba(imodel.alignment_ins
Ins
p1270
(dp1271
g27
S'the'
p1272
sg32
g54
sba(imodel.alignment_ins
Ins
p1273
(dp1274
g27
S'Bronx'
p1275
sg32
g54
sba(imodel.alignment_ins
Ins
p1276
(dp1277
g27
S'and'
p1278
sg32
g54
sba(imodel.alignment_ins
Ins
p1279
(dp1280
g27
S'Queens'
p1281
sg32
g54
sbasg60
(lp1282
g1235
ag1239
ag1244
ag1248
ag1251
ag1254
ag1257
ag1260
ag1263
ag1266
ag1269
ag1272
ag1275
ag1278
ag1281
asba(imodel.training_problem
Training_problem
p1283
(dp1284
g4
(lp1285
S'also'
p1286
aS'charged'
p1287
asg10
(lp1288
(imodel.alignment_eq
Eq
p1289
(dp1290
g14
S'v'
sg16
g278
sg18
S'v'
sg19
(dp1291
g21
S'v'
sg22
S'r'
sg23
S'a'
sg24
S'n'
ssg25
S'charge'
p1292
sg27
S'charged'
p1293
sg28
I1
sg29
I0
sg30
S'charge'
p1294
sg31
g1287
sg32
g33
sg34
g278
sba(imodel.alignment_del
Del
p1295
(dp1296
g31
g1286
sg32
g86
sbasg60
(lp1297
g1293
asba(imodel.training_problem
Training_problem
p1298
(dp1299
g4
(lp1300
S'covering'
p1301
aS'up'
p1302
aS'the'
p1303
aS'payments'
p1304
aS'by'
p1305
aS'describing'
p1306
aS'them'
p1307
aS'as'
p1308
aS'retainers'
p1309
aS'for'
p1310
aS'legal'
p1311
aS'and'
p1312
aS'accounting'
p1313
aS'services'
p1314
asg10
(lp1315
g35
(g36
g37
NtRp1316
(dp1317
g14
S'v'
sg16
S'VBG'
p1318
sg18
S'n'
sg19
(dp1319
g21
S'v'
sg22
S'r'
sg23
S'a'
sg24
S'n'
ssg25
S'hide'
p1320
sg27
g1320
sg28
I0
sg29
I0
sg30
S'cover'
p1321
sg31
g1301
sg32
g44
sg34
g57
sba(imodel.alignment_eq
Eq
p1322
(dp1323
g14
g15
sg16
g17
sg18
g15
sg19
(dp1324
g21
S'v'
sg22
S'r'
sg23
S'a'
sg24
S'n'
ssg25
S'the'
p1325
sg27
g1325
sg28
I2
sg29
I1
sg30
g1303
sg31
g1303
sg32
g33
sg34
g17
sba(imodel.alignment_eq
Eq
p1326
(dp1327
g14
S'n'
sg16
g77
sg18
S'n'
sg19
(dp1328
g21
S'v'
sg22
S'r'
sg23
S'a'
sg24
S'n'
ssg25
S'payment'
p1329
sg27
S'payments'
p1330
sg28
I3
sg29
I2
sg30
S'payment'
p1331
sg31
g1304
sg32
g33
sg34
g77
sba(imodel.alignment_eq
Eq
p1332
(dp1333
g14
g15
sg16
g655
sg18
g15
sg19
(dp1334
g21
S'v'
sg22
S'r'
sg23
S'a'
sg24
S'n'
ssg25
S'by'
p1335
sg27
g1335
sg28
I4
sg29
I3
sg30
g1305
sg31
g1305
sg32
g33
sg34
g655
sbag35
(g36
g37
NtRp1336
(dp1337
g14
S'v'
sg16
g1318
sg18
S'n'
sg19
(dp1338
g21
S'v'
sg22
S'r'
sg23
S'a'
sg24
S'n'
ssg25
S'listing'
p1339
sg27
g1339
sg28
I5
sg29
I4
sg30
S'describe'
p1340
sg31
g1306
sg32
g44
sg34
g57
sba(imodel.alignment_eq
Eq
p1341
(dp1342
g14
g15
sg16
S'PRP'
p1343
sg18
g15
sg19
(dp1344
g21
S'v'
sg22
S'r'
sg23
S'a'
sg24
S'n'
ssg25
S'them'
p1345
sg27
g1345
sg28
I6
sg29
I5
sg30
g1307
sg31
g1307
sg32
g33
sg34
g1343
sba(imodel.alignment_eq
Eq
p1346
(dp1347
g14
g15
sg16
g655
sg18
g15
sg19
(dp1348
g21
S'v'
sg22
S'r'
sg23
S'a'
sg24
S'n'
ssg25
S'as'
p1349
sg27
g1349
sg28
I7
sg29
I6
sg30
g1308
sg31
g1308
sg32
g33
sg34
g655
sba(imodel.alignment_eq
Eq
p1350
(dp1351
g14
S'v'
sg16
g1318
sg18
S'v'
sg19
(dp1352
g21
S'v'
sg22
S'r'
sg23
S'a'
sg24
S'n'
ssg25
S'account'
p1353
sg27
S'accounting'
p1354
sg28
I12
sg29
I7
sg30
S'account'
p1355
sg31
g1313
sg32
g33
sg34
g1318
sba(imodel.alignment_eq
Eq
p1356
(dp1357
g14
S'n'
sg16
g77
sg18
S'n'
sg19
(dp1358
g21
S'v'
sg22
S'r'
sg23
S'a'
sg24
S'n'
ssg25
S'service'
p1359
sg27
S'services'
p1360
sg28
I13
sg29
I8
sg30
S'service'
p1361
sg31
g1314
sg32
g33
sg34
g77
sba(imodel.alignment_del
Del
p1362
(dp1363
g31
g1302
sg32
g86
sba(imodel.alignment_del
Del
p1364
(dp1365
g31
g1309
sg32
g86
sba(imodel.alignment_del
Del
p1366
(dp1367
g31
g1310
sg32
g86
sba(imodel.alignment_del
Del
p1368
(dp1369
g31
g1311
sg32
g86
sba(imodel.alignment_del
Del
p1370
(dp1371
g31
g1312
sg32
g86
sbasg60
(lp1372
g1320
ag1325
ag1330
ag1335
ag1339
ag1345
ag1349
ag1354
ag1360
asba(imodel.training_problem
Training_problem
p1373
(dp1374
g4
(lp1375
S'After'
p1376
aS'the'
p1377
aS'conflict'
p1378
asg10
(lp1379
g35
(g36
g37
NtRp1380
(dp1381
g14
g15
sg16
g655
sg18
g15
sg19
(dp1382
g21
S'v'
sg22
S'r'
sg23
S'a'
sg24
S'n'
ssg25
S'after'
p1383
sg27
g1383
sg28
I0
sg29
I0
sg30
g1376
sg31
g1376
sg32
g44
sg34
g655
sba(imodel.alignment_eq
Eq
p1384
(dp1385
g14
g15
sg16
g17
sg18
g15
sg19
(dp1386
g21
S'v'
sg22
S'r'
sg23
S'a'
sg24
S'n'
ssg25
S'the'
p1387
sg27
g1387
sg28
I1
sg29
I1
sg30
g1377
sg31
g1377
sg32
g33
sg34
g17
sbag35
(g36
g37
NtRp1388
(dp1389
g14
S'n'
sg16
g57
sg18
S'n'
sg19
(dp1390
g21
S'v'
sg22
S'r'
sg23
S'a'
sg24
S'n'
ssg25
S'battle'
p1391
sg27
g1391
sg28
I2
sg29
I2
sg30
g1378
sg31
g1378
sg32
g44
sg34
g57
sba(imodel.alignment_ins
Ins
p1392
(dp1393
g27
S"'s"
p1394
sg32
g54
sba(imodel.alignment_ins
Ins
p1395
(dp1396
g27
S'end'
p1397
sg32
g54
sbasg60
(lp1398
g1383
ag1387
ag1391
ag1394
ag1397
asba(imodel.training_problem
Training_problem
p1399
(dp1400
g4
(lp1401
S'Desmarest'
p1402
aS'and'
p1403
aS'her'
p1404
aS'friend'
p1405
aS'Jasmina'
p1406
asg10
(lp1407
(imodel.alignment_eq
Eq
p1408
(dp1409
g14
S'n'
sg16
g48
sg18
S'n'
sg19
(dp1410
g21
S'v'
sg22
S'r'
sg23
S'a'
sg24
S'n'
ssg25
S'Jasmina'
p1411
sg27
g1411
sg28
I4
sg29
I0
sg30
g1406
sg31
g1406
sg32
g33
sg34
g48
sba(imodel.alignment_eq
Eq
p1412
(dp1413
g14
g15
sg16
S'CC'
p1414
sg18
g15
sg19
(dp1415
g21
S'v'
sg22
S'r'
sg23
S'a'
sg24
S'n'
ssg25
S'and'
p1416
sg27
g1416
sg28
I1
sg29
I1
sg30
g1403
sg31
g1403
sg32
g33
sg34
g1414
sbag35
(g36
g37
NtRp1417
(dp1418
g14
S'n'
sg16
g48
sg18
S'n'
sg19
(dp1419
g21
S'v'
sg22
S'r'
sg23
S'a'
sg24
S'n'
ssg25
S'Desmaret'
p1420
sg27
g1420
sg28
I0
sg29
I2
sg30
g1402
sg31
g1402
sg32
g44
sg34
g48
sba(imodel.alignment_del
Del
p1421
(dp1422
g31
g1404
sg32
g86
sba(imodel.alignment_del
Del
p1423
(dp1424
g31
g1405
sg32
g86
sbasg60
(lp1425
g1411
ag1416
ag1420
asba(imodel.training_problem
Training_problem
p1426
(dp1427
g4
(lp1428
S'Lately'
p1429
aS'he'
p1430
aS'has'
p1431
aS'bid'
p1432
asg10
(lp1433
g35
(g36
g37
NtRp1434
(dp1435
g14
g15
sg16
g1343
sg18
g15
sg19
(dp1436
g21
S'v'
sg22
S'r'
sg23
S'a'
sg24
S'n'
ssg25
S'his'
p1437
sg27
g1437
sg28
I1
sg29
I0
sg30
g1430
sg31
g1430
sg32
g44
sg34
g499
sbag35
(g36
g37
NtRp1438
(dp1439
g14
S'r'
sg16
g950
sg18
S'a'
sg19
(dp1440
g21
S'v'
sg22
S'r'
sg23
S'a'
sg24
S'n'
ssg25
S'late'
p1441
sg27
S'latest'
p1442
sg28
I0
sg29
I1
sg30
g1429
sg31
g1429
sg32
g44
sg34
g45
sba(imodel.alignment_eq
Eq
p1443
(dp1444
g14
S'v'
sg16
g149
sg18
S'n'
sg19
(dp1445
g21
S'v'
sg22
S'r'
sg23
S'a'
sg24
S'n'
ssg25
S'bid'
p1446
sg27
g1446
sg28
I3
sg29
I2
sg30
g1432
sg31
g1432
sg32
g33
sg34
g57
sba(imodel.alignment_del
Del
p1447
(dp1448
g31
g1431
sg32
g86
sbasg60
(lp1449
g1437
ag1442
ag1446
asba(imodel.training_problem
Training_problem
p1450
(dp1451
g4
(lp1452
S'struggling'
p1453
aS'computermaker'
p1454
aS'Dell'
p1455
asg10
(lp1456
g35
(g36
g37
NtRp1457
(dp1458
g14
S'v'
sg16
g1318
sg18
S'a'
sg19
(dp1459
g21
S'v'
sg22
S'r'
sg23
S'a'
sg24
S'n'
ssg25
S'weak'
p1460
sg27
g1460
sg28
I0
sg29
I0
sg30
S'struggle'
p1461
sg31
g1453
sg32
g44
sg34
g40
sba(imodel.alignment_ins
Ins
p1462
(dp1463
g27
S'PC'
p1464
sg32
g54
sbag35
(g36
g37
NtRp1465
(dp1466
g14
S'n'
sg16
g57
sg18
S'n'
sg19
(dp1467
g21
S'v'
sg22
S'r'
sg23
S'a'
sg24
S'n'
ssg25
S'manufacturer'
p1468
sg27
g1468
sg28
I1
sg29
I2
sg30
g1454
sg31
g1454
sg32
g44
sg34
g57
sba(imodel.alignment_eq
Eq
p1469
(dp1470
g14
S'n'
sg16
g48
sg18
S'n'
sg19
(dp1471
g21
S'v'
sg22
S'r'
sg23
S'a'
sg24
S'n'
ssg25
S'Dell'
p1472
sg27
g1472
sg28
I2
sg29
I3
sg30
g1455
sg31
g1455
sg32
g33
sg34
g48
sbasg60
(lp1473
g1460
ag1464
ag1468
ag1472
asba(imodel.training_problem
Training_problem
p1474
(dp1475
g4
(lp1476
S'a'
aS'big'
p1477
aS'stake'
p1478
asg10
(lp1479
(imodel.alignment_eq
Eq
p1480
(dp1481
g14
g15
sg16
g17
sg18
g15
sg19
(dp1482
g21
S'v'
sg22
S'r'
sg23
S'a'
sg24
S'n'
ssg25
S'a'
sg27
S'a'
sg28
I0
sg29
I0
sg30
S'a'
sg31
S'a'
sg32
g33
sg34
g17
sbag35
(g36
g37
NtRp1483
(dp1484
g14
S'a'
sg16
g40
sg18
S'a'
sg19
(dp1485
g21
S'v'
sg22
S'r'
sg23
S'a'
sg24
S'n'
ssg25
S'large'
p1486
sg27
g1486
sg28
I1
sg29
I1
sg30
g1477
sg31
g1477
sg32
g44
sg34
g40
sbag35
(g36
g37
NtRp1487
(dp1488
g14
S'n'
sg16
g57
sg18
S'n'
sg19
(dp1489
g21
S'v'
sg22
S'r'
sg23
S'a'
sg24
S'n'
ssg25
S'share'
p1490
sg27
g1490
sg28
I2
sg29
I2
sg30
g1478
sg31
g1478
sg32
g44
sg34
g57
sbasg60
(lp1491
S'a'
ag1486
ag1490
asba(imodel.training_problem
Training_problem
p1492
(dp1493
g4
(lp1494
S'Earlier'
p1495
aS'this'
p1496
aS'year'
p1497
asg10
(lp1498
g35
(g36
g37
NtRp1499
(dp1500
g14
S'a'
sg16
S'JJR'
p1501
sg18
S'r'
sg19
(dp1502
g21
S'v'
sg22
S'r'
sg23
S'a'
sg24
S'n'
ssg25
S'Previously'
p1503
sg27
g1503
sg28
I0
sg29
I0
sg30
g1495
sg31
g1495
sg32
g44
sg34
g950
sba(imodel.alignment_del
Del
p1504
(dp1505
g31
g1496
sg32
g86
sba(imodel.alignment_del
Del
p1506
(dp1507
g31
g1497
sg32
g86
sbasg60
(lp1508
g1503
asba(imodel.training_problem
Training_problem
p1509
(dp1510
g4
(lp1511
S'best'
p1512
aS'known'
p1513
aS'for'
p1514
aS'its'
p1515
aS'Dragon'
p1516
aS'speech'
p1517
aS'software'
p1518
asg10
(lp1519
(imodel.alignment_eq
Eq
p1520
(dp1521
g14
S'v'
sg16
g149
sg18
S'n'
sg19
(dp1522
g21
S'v'
sg22
S'r'
sg23
S'a'
sg24
S'n'
ssg25
S'known'
p1523
sg27
g1523
sg28
I1
sg29
I0
sg30
S'know'
p1524
sg31
g1513
sg32
g33
sg34
g57
sba(imodel.alignment_eq
Eq
p1525
(dp1526
g14
g15
sg16
g655
sg18
g15
sg19
(dp1527
g21
S'v'
sg22
S'r'
sg23
S'a'
sg24
S'n'
ssg25
S'for'
p1528
sg27
g1528
sg28
I2
sg29
I1
sg30
g1514
sg31
g1514
sg32
g33
sg34
g655
sba(imodel.alignment_ins
Ins
p1529
(dp1530
g27
S'making'
p1531
sg32
g54
sba(imodel.alignment_eq
Eq
p1532
(dp1533
g14
S'n'
sg16
g48
sg18
S'n'
sg19
(dp1534
g21
S'v'
sg22
S'r'
sg23
S'a'
sg24
S'n'
ssg25
S'Dragon'
p1535
sg27
g1535
sg28
I4
sg29
I3
sg30
g1516
sg31
g1516
sg32
g33
sg34
g48
sba(imodel.alignment_eq
Eq
p1536
(dp1537
g14
S'n'
sg16
g57
sg18
S'n'
sg19
(dp1538
g21
S'v'
sg22
S'r'
sg23
S'a'
sg24
S'n'
ssg25
S'speech'
p1539
sg27
g1539
sg28
I5
sg29
I4
sg30
g1517
sg31
g1517
sg32
g33
sg34
g57
sba(imodel.alignment_ins
Ins
p1540
(dp1541
g27
S'recognition'
p1542
sg32
g54
sbag35
(g36
g37
NtRp1543
(dp1544
g14
S'n'
sg16
g57
sg18
S'n'
sg19
(dp1545
g21
S'v'
sg22
S'r'
sg23
S'a'
sg24
S'n'
ssg25
S'apps'
p1546
sg27
g1546
sg28
I6
sg29
I6
sg30
g1518
sg31
g1518
sg32
g44
sg34
g77
sba(imodel.alignment_del
Del
p1547
(dp1548
g31
g1512
sg32
g86
sba(imodel.alignment_del
Del
p1549
(dp1550
g31
g1515
sg32
g86
sbasg60
(lp1551
g1523
ag1528
ag1531
ag1535
ag1539
ag1542
ag1546
asba(imodel.training_problem
Training_problem
p1552
(dp1553
g4
(lp1554
S'lowered'
p1555
aS'its'
p1556
aS'sales'
p1557
aS'and'
p1558
aS'earning'
p1559
aS'forecast'
p1560
aS'because'
p1561
aS'of'
p1562
aS'a'
aS'weakening'
p1563
aS'market'
p1564
asg10
(lp1565
(imodel.alignment_eq
Eq
p1566
(dp1567
g14
S'v'
sg16
g278
sg18
S'v'
sg19
(dp1568
g21
S'v'
sg22
S'r'
sg23
S'a'
sg24
S'n'
ssg25
S'lower'
p1569
sg27
S'lowered'
p1570
sg28
I0
sg29
I0
sg30
S'lower'
p1571
sg31
g1555
sg32
g33
sg34
g278
sba(imodel.alignment_eq
Eq
p1572
(dp1573
g14
g15
sg16
g499
sg18
g15
sg19
(dp1574
g21
S'v'
sg22
S'r'
sg23
S'a'
sg24
S'n'
ssg25
S'its'
p1575
sg27
g1575
sg28
I1
sg29
I1
sg30
g1556
sg31
g1556
sg32
g33
sg34
g499
sba(imodel.alignment_eq
Eq
p1576
(dp1577
g14
S'n'
sg16
g77
sg18
S'n'
sg19
(dp1578
g21
S'v'
sg22
S'r'
sg23
S'a'
sg24
S'n'
ssg25
S'sale'
p1579
sg27
S'sales'
p1580
sg28
I2
sg29
I2
sg30
S'sale'
p1581
sg31
g1557
sg32
g33
sg34
g77
sba(imodel.alignment_eq
Eq
p1582
(dp1583
g14
g15
sg16
g1414
sg18
g15
sg19
(dp1584
g21
S'v'
sg22
S'r'
sg23
S'a'
sg24
S'n'
ssg25
S'and'
p1585
sg27
g1585
sg28
I3
sg29
I3
sg30
g1558
sg31
g1558
sg32
g33
sg34
g1414
sba(imodel.alignment_eq
Eq
p1586
(dp1587
g14
S'v'
sg16
g1318
sg18
S'v'
sg19
(dp1588
g21
S'v'
sg22
S'r'
sg23
S'a'
sg24
S'n'
ssg25
S'earn'
p1589
sg27
S'earning'
p1590
sg28
I4
sg29
I4
sg30
S'earn'
p1591
sg31
g1559
sg32
g33
sg34
g1318
sba(imodel.alignment_eq
Eq
p1592
(dp1593
g14
S'n'
sg16
g57
sg18
S'n'
sg19
(dp1594
g21
S'v'
sg22
S'r'
sg23
S'a'
sg24
S'n'
ssg25
S'forecast'
p1595
sg27
g1595
sg28
I5
sg29
I5
sg30
g1560
sg31
g1560
sg32
g33
sg34
g57
sba(imodel.alignment_eq
Eq
p1596
(dp1597
g14
g15
sg16
g655
sg18
g15
sg19
(dp1598
g21
S'v'
sg22
S'r'
sg23
S'a'
sg24
S'n'
ssg25
S'because'
p1599
sg27
g1599
sg28
I6
sg29
I6
sg30
g1561
sg31
g1561
sg32
g33
sg34
g655
sba(imodel.alignment_eq
Eq
p1600
(dp1601
g14
g15
sg16
g655
sg18
g15
sg19
(dp1602
g21
S'v'
sg22
S'r'
sg23
S'a'
sg24
S'n'
ssg25
S'of'
p1603
sg27
g1603
sg28
I7
sg29
I7
sg30
g1562
sg31
g1562
sg32
g33
sg34
g655
sba(imodel.alignment_eq
Eq
p1604
(dp1605
g14
g15
sg16
g17
sg18
g15
sg19
(dp1606
g21
S'v'
sg22
S'r'
sg23
S'a'
sg24
S'n'
ssg25
S'a'
sg27
S'a'
sg28
I8
sg29
I8
sg30
S'a'
sg31
S'a'
sg32
g33
sg34
g17
sba(imodel.alignment_eq
Eq
p1607
(dp1608
g14
S'n'
sg16
g57
sg18
S'n'
sg19
(dp1609
g21
S'v'
sg22
S'r'
sg23
S'a'
sg24
S'n'
ssg25
S'weakening'
p1610
sg27
g1610
sg28
I9
sg29
I9
sg30
g1563
sg31
g1563
sg32
g33
sg34
g57
sba(imodel.alignment_eq
Eq
p1611
(dp1612
g14
S'n'
sg16
g57
sg18
S'n'
sg19
(dp1613
g21
S'v'
sg22
S'r'
sg23
S'a'
sg24
S'n'
ssg25
S'market'
p1614
sg27
g1614
sg28
I10
sg29
I10
sg30
g1564
sg31
g1564
sg32
g33
sg34
g57
sba(imodel.alignment_ins
Ins
p1615
(dp1616
g27
S'for'
p1617
sg32
g54
sba(imodel.alignment_ins
Ins
p1618
(dp1619
g27
S'medical'
p1620
sg32
g54
sba(imodel.alignment_ins
Ins
p1621
(dp1622
g27
S'transcription'
p1623
sg32
g54
sba(imodel.alignment_ins
Ins
p1624
(dp1625
g27
S'services'
p1626
sg32
g54
sbasg60
(lp1627
g1570
ag1575
ag1580
ag1585
ag1590
ag1595
ag1599
ag1603
aS'a'
ag1610
ag1614
ag1617
ag1620
ag1623
ag1626
asba(imodel.training_problem
Training_problem
p1628
(dp1629
g4
(lp1630
S'lowered'
p1631
aS'its'
p1632
aS'sales'
p1633
aS'and'
p1634
aS'earning'
p1635
aS'forecast'
p1636
aS'because'
p1637
aS'of'
p1638
aS'a'
aS'weakening'
p1639
aS'market'
p1640
aS'for'
p1641
aS'medical'
p1642
aS'transcription'
p1643
aS'services'
p1644
asg10
(lp1645
(imodel.alignment_eq
Eq
p1646
(dp1647
g14
S'v'
sg16
g278
sg18
S'v'
sg19
(dp1648
g21
S'v'
sg22
S'r'
sg23
S'a'
sg24
S'n'
ssg25
S'lower'
p1649
sg27
S'lowered'
p1650
sg28
I0
sg29
I0
sg30
S'lower'
p1651
sg31
g1631
sg32
g33
sg34
g278
sba(imodel.alignment_eq
Eq
p1652
(dp1653
g14
g15
sg16
g499
sg18
g15
sg19
(dp1654
g21
S'v'
sg22
S'r'
sg23
S'a'
sg24
S'n'
ssg25
S'its'
p1655
sg27
g1655
sg28
I1
sg29
I1
sg30
g1632
sg31
g1632
sg32
g33
sg34
g499
sbag35
(g36
g37
NtRp1656
(dp1657
g14
S'n'
sg16
g57
sg18
S'v'
sg19
(dp1658
g21
S'v'
sg22
S'r'
sg23
S'a'
sg24
S'n'
ssg25
S'expect'
p1659
sg27
S'expected'
p1660
sg28
I5
sg29
I2
sg30
g1636
sg31
g1636
sg32
g44
sg34
g149
sbag35
(g36
g37
NtRp1661
(dp1662
g14
S'v'
sg16
g1318
sg18
S'n'
sg19
(dp1663
g21
S'v'
sg22
S'r'
sg23
S'a'
sg24
S'n'
ssg25
S'earnings'
p1664
sg27
g1664
sg28
I4
sg29
I3
sg30
S'earn'
p1665
sg31
g1635
sg32
g44
sg34
g77
sba(imodel.alignment_del
Del
p1666
(dp1667
g31
g1633
sg32
g86
sba(imodel.alignment_del
Del
p1668
(dp1669
g31
g1634
sg32
g86
sba(imodel.alignment_del
Del
p1670
(dp1671
g31
g1637
sg32
g86
sba(imodel.alignment_del
Del
p1672
(dp1673
g31
g1638
sg32
g86
sba(imodel.alignment_del
Del
p1674
(dp1675
g31
S'a'
sg32
g86
sba(imodel.alignment_del
Del
p1676
(dp1677
g31
g1639
sg32
g86
sba(imodel.alignment_del
Del
p1678
(dp1679
g31
g1640
sg32
g86
sba(imodel.alignment_del
Del
p1680
(dp1681
g31
g1641
sg32
g86
sba(imodel.alignment_del
Del
p1682
(dp1683
g31
g1642
sg32
g86
sba(imodel.alignment_del
Del
p1684
(dp1685
g31
g1643
sg32
g86
sba(imodel.alignment_del
Del
p1686
(dp1687
g31
g1644
sg32
g86
sbasg60
(lp1688
g1650
ag1655
ag1660
ag1664
asba(imodel.training_problem
Training_problem
p1689
(dp1690
g4
(lp1691
S'Activist'
p1692
aS'investor'
p1693
aS'Carl'
p1694
aS'Icahn'
p1695
asg10
(lp1696
(imodel.alignment_eq
Eq
p1697
(dp1698
g14
S'n'
sg16
g48
sg18
S'n'
sg19
(dp1699
g21
S'v'
sg22
S'r'
sg23
S'a'
sg24
S'n'
ssg25
S'Carl'
p1700
sg27
g1700
sg28
I2
sg29
I0
sg30
g1694
sg31
g1694
sg32
g33
sg34
g48
sba(imodel.alignment_eq
Eq
p1701
(dp1702
g14
S'n'
sg16
g48
sg18
S'n'
sg19
(dp1703
g21
S'v'
sg22
S'r'
sg23
S'a'
sg24
S'n'
ssg25
S'Icahn'
p1704
sg27
g1704
sg28
I3
sg29
I1
sg30
g1695
sg31
g1695
sg32
g33
sg34
g48
sba(imodel.alignment_del
Del
p1705
(dp1706
g31
g1692
sg32
g86
sba(imodel.alignment_del
Del
p1707
(dp1708
g31
g1693
sg32
g86
sbasg60
(lp1709
g1700
ag1704
asba(imodel.training_problem
Training_problem
p1710
(dp1711
g4
(lp1712
S'Disney'
p1713
aS'and'
p1714
aS'Pixar'
p1715
asg10
(lp1716
(imodel.alignment_ins
Ins
p1717
(dp1718
g27
S'Movie'
p1719
sg32
g54
sba(imodel.alignment_ins
Ins
p1720
(dp1721
g27
S'studios'
p1722
sg32
g54
sba(imodel.alignment_eq
Eq
p1723
(dp1724
g14
S'n'
sg16
g48
sg18
S'n'
sg19
(dp1725
g21
S'v'
sg22
S'r'
sg23
S'a'
sg24
S'n'
ssg25
S'Disney'
p1726
sg27
g1726
sg28
I0
sg29
I2
sg30
g1713
sg31
g1713
sg32
g33
sg34
g48
sba(imodel.alignment_eq
Eq
p1727
(dp1728
g14
g15
sg16
g1414
sg18
g15
sg19
(dp1729
g21
S'v'
sg22
S'r'
sg23
S'a'
sg24
S'n'
ssg25
S'and'
p1730
sg27
g1730
sg28
I1
sg29
I3
sg30
g1714
sg31
g1714
sg32
g33
sg34
g1414
sba(imodel.alignment_eq
Eq
p1731
(dp1732
g14
S'n'
sg16
g48
sg18
S'n'
sg19
(dp1733
g21
S'v'
sg22
S'r'
sg23
S'a'
sg24
S'n'
ssg25
S'Pixar'
p1734
sg27
g1734
sg28
I2
sg29
I4
sg30
g1715
sg31
g1715
sg32
g33
sg34
g48
sbasg60
(lp1735
g1719
ag1722
ag1726
ag1730
ag1734
asba(imodel.training_problem
Training_problem
p1736
(dp1737
g4
(lp1738
S'the'
p1739
aS'perfect'
p1740
aS'family'
p1741
aS'dog'
p1742
asg10
(lp1743
g35
(g36
g37
NtRp1744
(dp1745
g14
g15
sg16
g17
sg18
g15
sg19
(dp1746
g21
S'v'
sg22
S'r'
sg23
S'a'
sg24
S'n'
ssg25
S'an'
p1747
sg27
g1747
sg28
I0
sg29
I0
sg30
g1739
sg31
g1739
sg32
g44
sg34
g17
sbag35
(g36
g37
NtRp1748
(dp1749
g14
S'n'
sg16
g57
sg18
S'n'
sg19
(dp1750
g21
S'v'
sg22
S'r'
sg23
S'a'
sg24
S'n'
ssg25
S'ideal'
p1751
sg27
g1751
sg28
I1
sg29
I1
sg30
g1740
sg31
g1740
sg32
g44
sg34
g57
sba(imodel.alignment_eq
Eq
p1752
(dp1753
g14
S'n'
sg16
g57
sg18
S'n'
sg19
(dp1754
g21
S'v'
sg22
S'r'
sg23
S'a'
sg24
S'n'
ssg25
S'dog'
p1755
sg27
g1755
sg28
I3
sg29
I2
sg30
g1742
sg31
g1742
sg32
g33
sg34
g57
sba(imodel.alignment_ins
Ins
p1756
(dp1757
g27
S'for'
p1758
sg32
g54
sbag35
(g36
g37
NtRp1759
(dp1760
g14
S'n'
sg16
g57
sg18
S'n'
sg19
(dp1761
g21
S'v'
sg22
S'r'
sg23
S'a'
sg24
S'n'
ssg25
S'family'
p1762
sg27
S'families'
p1763
sg28
I2
sg29
I4
sg30
g1741
sg31
g1741
sg32
g44
sg34
g77
sbasg60
(lp1764
g1747
ag1751
ag1755
ag1758
ag1763
asba(imodel.training_problem
Training_problem
p1765
(dp1766
g4
(lp1767
S'His'
p1768
aS'subsequent'
p1769
aS'career'
p1770
aS'as'
p1771
aS'a'
aS'businessman'
p1772
asg10
(lp1773
g35
(g36
g37
NtRp1774
(dp1775
g14
g15
sg16
g499
sg18
g15
sg19
(dp1776
g21
S'v'
sg22
S'r'
sg23
S'a'
sg24
S'n'
ssg25
S'his'
p1777
sg27
g1777
sg28
I0
sg29
I0
sg30
g1768
sg31
g1768
sg32
g44
sg34
g499
sba(imodel.alignment_eq
Eq
p1778
(dp1779
g14
S'n'
sg16
g57
sg18
S'n'
sg19
(dp1780
g21
S'v'
sg22
S'r'
sg23
S'a'
sg24
S'n'
ssg25
S'career'
p1781
sg27
g1781
sg28
I2
sg29
I1
sg30
g1770
sg31
g1770
sg32
g33
sg34
g57
sbag35
(g36
g37
NtRp1782
(dp1783
g14
g15
sg16
g655
sg18
g15
sg19
(dp1784
g21
S'v'
sg22
S'r'
sg23
S'a'
sg24
S'n'
ssg25
S'in'
p1785
sg27
g1785
sg28
I3
sg29
I2
sg30
g1771
sg31
g1771
sg32
g44
sg34
g655
sbag35
(g36
g37
NtRp1786
(dp1787
g14
S'n'
sg16
g57
sg18
S'n'
sg19
(dp1788
g21
S'v'
sg22
S'r'
sg23
S'a'
sg24
S'n'
ssg25
S'business'
p1789
sg27
g1789
sg28
I5
sg29
I3
sg30
g1772
sg31
g1772
sg32
g44
sg34
g57
sba(imodel.alignment_del
Del
p1790
(dp1791
g31
g1769
sg32
g86
sba(imodel.alignment_del
Del
p1792
(dp1793
g31
S'a'
sg32
g86
sbasg60
(lp1794
g1777
ag1781
ag1785
ag1789
asba(imodel.training_problem
Training_problem
p1795
(dp1796
g4
(lp1797
S'troubled'
p1798
aS'by'
p1799
aS'bankruptcies'
p1800
asg10
(lp1801
g35
(g36
g37
NtRp1802
(dp1803
g14
S'v'
sg16
g278
sg18
S'v'
sg19
(dp1804
g21
S'v'
sg22
S'r'
sg23
S'a'
sg24
S'n'
ssg25
S'plague'
p1805
sg27
S'plagued'
p1806
sg28
I0
sg29
I0
sg30
S'trouble'
p1807
sg31
g1798
sg32
g44
sg34
g278
sba(imodel.alignment_eq
Eq
p1808
(dp1809
g14
g15
sg16
g655
sg18
g15
sg19
(dp1810
g21
S'v'
sg22
S'r'
sg23
S'a'
sg24
S'n'
ssg25
S'by'
p1811
sg27
g1811
sg28
I1
sg29
I1
sg30
g1799
sg31
g1799
sg32
g33
sg34
g655
sba(imodel.alignment_ins
Ins
p1812
(dp1813
g27
S'financial'
p1814
sg32
g54
sba(imodel.alignment_ins
Ins
p1815
(dp1816
g27
S'troubles'
p1817
sg32
g54
sba(imodel.alignment_ins
Ins
p1818
(dp1819
g27
S'and'
p1820
sg32
g54
sbag35
(g36
g37
NtRp1821
(dp1822
g14
S'n'
sg16
g77
sg18
S'n'
sg19
(dp1823
g21
S'v'
sg22
S'r'
sg23
S'a'
sg24
S'n'
ssg25
S'brankruptcies'
p1824
sg27
g1824
sg28
I2
sg29
I5
sg30
S'bankruptcy'
p1825
sg31
g1800
sg32
g44
sg34
g77
sbasg60
(lp1826
g1806
ag1811
ag1814
ag1817
ag1820
ag1824
asba(imodel.training_problem
Training_problem
p1827
(dp1828
g4
(lp1829
S'in'
p1830
aS'an'
p1831
aS'indictment'
p1832
asg10
(lp1833
(imodel.alignment_eq
Eq
p1834
(dp1835
g14
g15
sg16
g655
sg18
g15
sg19
(dp1836
g21
S'v'
sg22
S'r'
sg23
S'a'
sg24
S'n'
ssg25
S'in'
p1837
sg27
g1837
sg28
I0
sg29
I0
sg30
g1830
sg31
g1830
sg32
g33
sg34
g655
sbag35
(g36
g37
NtRp1838
(dp1839
g14
g15
sg16
g17
sg18
g15
sg19
(dp1840
g21
S'v'
sg22
S'r'
sg23
S'a'
sg24
S'n'
ssg25
S'the'
p1841
sg27
g1841
sg28
I1
sg29
I1
sg30
g1831
sg31
g1831
sg32
g44
sg34
g17
sba(imodel.alignment_ins
Ins
p1842
(dp1843
g27
S'first'
p1844
sg32
g54
sba(imodel.alignment_ins
Ins
p1845
(dp1846
g27
S'of'
p1847
sg32
g54
sba(imodel.alignment_ins
Ins
p1848
(dp1849
g27
S'several'
p1850
sg32
g54
sbag35
(g36
g37
NtRp1851
(dp1852
g14
S'n'
sg16
g57
sg18
S'n'
sg19
(dp1853
g21
S'v'
sg22
S'r'
sg23
S'a'
sg24
S'n'
ssg25
S'indictment'
p1854
sg27
S'indictments'
p1855
sg28
I2
sg29
I5
sg30
g1832
sg31
g1832
sg32
g44
sg34
g77
sbasg60
(lp1856
g1837
ag1841
ag1844
ag1847
ag1850
ag1855
asba(imodel.training_problem
Training_problem
p1857
(dp1858
g4
(lp1859
S'despite'
p1860
aS'his'
p1861
aS'best'
p1862
aS'efforts'
p1863
aS','
aS'the'
p1864
aS'student'
p1865
asg10
(lp1866
(imodel.alignment_eq
Eq
p1867
(dp1868
g14
g15
sg16
g17
sg18
g15
sg19
(dp1869
g21
S'v'
sg22
S'r'
sg23
S'a'
sg24
S'n'
ssg25
S'the'
p1870
sg27
g1870
sg28
I5
sg29
I0
sg30
g1864
sg31
g1864
sg32
g33
sg34
g17
sba(imodel.alignment_eq
Eq
p1871
(dp1872
g14
S'n'
sg16
g57
sg18
S'n'
sg19
(dp1873
g21
S'v'
sg22
S'r'
sg23
S'a'
sg24
S'n'
ssg25
S'student'
p1874
sg27
g1874
sg28
I6
sg29
I1
sg30
g1865
sg31
g1865
sg32
g33
sg34
g57
sba(imodel.alignment_del
Del
p1875
(dp1876
g31
g1860
sg32
g86
sba(imodel.alignment_del
Del
p1877
(dp1878
g31
g1861
sg32
g86
sba(imodel.alignment_del
Del
p1879
(dp1880
g31
g1862
sg32
g86
sba(imodel.alignment_del
Del
p1881
(dp1882
g31
g1863
sg32
g86
sba(imodel.alignment_del
Del
p1883
(dp1884
g31
S','
sg32
g86
sbasg60
(lp1885
g1870
ag1874
asba(imodel.training_problem
Training_problem
p1886
(dp1887
g4
(lp1888
S'that'
p1889
aS'government'
p1890
aS'is'
p1891
aS'the'
p1892
aS'problem'
p1893
asg10
(lp1894
(imodel.alignment_eq
Eq
p1895
(dp1896
g14
g15
sg16
g17
sg18
g15
sg19
(dp1897
g21
S'v'
sg22
S'r'
sg23
S'a'
sg24
S'n'
ssg25
S'the'
p1898
sg27
g1898
sg28
I3
sg29
I0
sg30
g1892
sg31
g1892
sg32
g33
sg34
g17
sba(imodel.alignment_eq
Eq
p1899
(dp1900
g14
S'n'
sg16
g57
sg18
S'n'
sg19
(dp1901
g21
S'v'
sg22
S'r'
sg23
S'a'
sg24
S'n'
ssg25
S'problem'
p1902
sg27
g1902
sg28
I4
sg29
I1
sg30
g1893
sg31
g1893
sg32
g33
sg34
g57
sba(imodel.alignment_eq
Eq
p1903
(dp1904
g14
S'v'
sg16
S'VBZ'
p1905
sg18
S'v'
sg19
(dp1906
g21
S'v'
sg22
S'r'
sg23
S'a'
sg24
S'n'
ssg25
S'be'
p1907
sg27
S'is'
p1908
sg28
I2
sg29
I2
sg30
g1907
sg31
g1891
sg32
g33
sg34
g1905
sba(imodel.alignment_ins
Ins
p1909
(dp1910
g27
S'big'
p1911
sg32
g54
sba(imodel.alignment_eq
Eq
p1912
(dp1913
g14
S'n'
sg16
g57
sg18
S'n'
sg19
(dp1914
g21
S'v'
sg22
S'r'
sg23
S'a'
sg24
S'n'
ssg25
S'government'
p1915
sg27
g1915
sg28
I1
sg29
I4
sg30
g1890
sg31
g1890
sg32
g33
sg34
g57
sba(imodel.alignment_del
Del
p1916
(dp1917
g31
g1889
sg32
g86
sbasg60
(lp1918
g1898
ag1902
ag1908
ag1911
ag1915
asba(imodel.training_problem
Training_problem
p1919
(dp1920
g4
(lp1921
S'claims'
p1922
aS'that'
p1923
aS'the'
p1924
aS'government'
p1925
asg10
(lp1926
g35
(g36
g37
NtRp1927
(dp1928
g14
S'n'
sg16
g77
sg18
S'n'
sg19
(dp1929
g21
S'v'
sg22
S'r'
sg23
S'a'
sg24
S'n'
ssg25
S'state'
p1930
sg27
S'states'
p1931
sg28
I0
sg29
I0
sg30
S'claim'
p1932
sg31
g1922
sg32
g44
sg34
g77
sba(imodel.alignment_eq
Eq
p1933
(dp1934
g14
g15
sg16
g655
sg18
g15
sg19
(dp1935
g21
S'v'
sg22
S'r'
sg23
S'a'
sg24
S'n'
ssg25
S'that'
p1936
sg27
g1936
sg28
I1
sg29
I1
sg30
g1923
sg31
g1923
sg32
g33
sg34
g655
sba(imodel.alignment_eq
Eq
p1937
(dp1938
g14
g15
sg16
g17
sg18
g15
sg19
(dp1939
g21
S'v'
sg22
S'r'
sg23
S'a'
sg24
S'n'
ssg25
S'the'
p1940
sg27
g1940
sg28
I2
sg29
I2
sg30
g1924
sg31
g1924
sg32
g33
sg34
g17
sba(imodel.alignment_ins
Ins
p1941
(dp1942
g27
S'federal'
p1943
sg32
g54
sba(imodel.alignment_eq
Eq
p1944
(dp1945
g14
S'n'
sg16
g57
sg18
S'n'
sg19
(dp1946
g21
S'v'
sg22
S'r'
sg23
S'a'
sg24
S'n'
ssg25
S'government'
p1947
sg27
g1947
sg28
I3
sg29
I4
sg30
g1925
sg31
g1925
sg32
g33
sg34
g57
sbasg60
(lp1948
g1931
ag1936
ag1940
ag1943
ag1947
asba(imodel.training_problem
Training_problem
p1949
(dp1950
g4
(lp1951
S'the'
p1952
aS'goddamn'
p1953
aS'fire'
p1954
aS'alarm'
p1955
asg10
(lp1956
g35
(g36
g37
NtRp1957
(dp1958
g14
g15
sg16
g17
sg18
g15
sg19
(dp1959
g21
S'v'
sg22
S'r'
sg23
S'a'
sg24
S'n'
ssg25
S'a'
sg27
S'a'
sg28
I0
sg29
I0
sg30
g1952
sg31
g1952
sg32
g44
sg34
g17
sba(imodel.alignment_ins
Ins
p1960
(dp1961
g27
S'poorly'
p1962
sg32
g54
sba(imodel.alignment_ins
Ins
p1963
(dp1964
g27
S'located'
p1965
sg32
g54
sba(imodel.alignment_eq
Eq
p1966
(dp1967
g14
S'n'
sg16
g57
sg18
S'n'
sg19
(dp1968
g21
S'v'
sg22
S'r'
sg23
S'a'
sg24
S'n'
ssg25
S'fire'
p1969
sg27
g1969
sg28
I2
sg29
I3
sg30
g1954
sg31
g1954
sg32
g33
sg34
g57
sba(imodel.alignment_eq
Eq
p1970
(dp1971
g14
S'n'
sg16
g57
sg18
S'n'
sg19
(dp1972
g21
S'v'
sg22
S'r'
sg23
S'a'
sg24
S'n'
ssg25
S'alarm'
p1973
sg27
g1973
sg28
I3
sg29
I4
sg30
g1955
sg31
g1955
sg32
g33
sg34
g57
sba(imodel.alignment_del
Del
p1974
(dp1975
g31
g1953
sg32
g86
sbasg60
(lp1976
S'a'
ag1962
ag1965
ag1969
ag1973
asba(imodel.training_problem
Training_problem
p1977
(dp1978
g4
(lp1979
S'clean'
p1980
aS'the'
p1981
aS'junk'
p1982
aS'from'
p1983
aS'the'
p1984
aS'oven'
p1985
asg10
(lp1986
g35
(g36
g37
NtRp1987
(dp1988
g14
S'a'
sg16
g40
sg18
g15
sg19
(dp1989
g21
S'v'
sg22
S'r'
sg23
S'a'
sg24
S'n'
ssg25
S'remove'
p1990
sg27
g1990
sg28
I0
sg29
I0
sg30
g1980
sg31
g1980
sg32
g44
sg34
g655
sba(imodel.alignment_eq
Eq
p1991
(dp1992
g14
g15
sg16
g17
sg18
g15
sg19
(dp1993
g21
S'v'
sg22
S'r'
sg23
S'a'
sg24
S'n'
ssg25
S'the'
p1994
sg27
g1994
sg28
I1
sg29
I1
sg30
g1981
sg31
g1981
sg32
g33
sg34
g17
sbag35
(g36
g37
NtRp1995
(dp1996
g14
S'n'
sg16
g57
sg18
S'n'
sg19
(dp1997
g21
S'v'
sg22
S'r'
sg23
S'a'
sg24
S'n'
ssg25
S'waste'
p1998
sg27
g1998
sg28
I2
sg29
I2
sg30
g1982
sg31
g1982
sg32
g44
sg34
g57
sba(imodel.alignment_eq
Eq
p1999
(dp2000
g14
g15
sg16
g655
sg18
g15
sg19
(dp2001
g21
S'v'
sg22
S'r'
sg23
S'a'
sg24
S'n'
ssg25
S'from'
p2002
sg27
g2002
sg28
I3
sg29
I3
sg30
g1983
sg31
g1983
sg32
g33
sg34
g655
sba(imodel.alignment_eq
Eq
p2003
(dp2004
g14
g15
sg16
g17
sg18
g15
sg19
(dp2005
g21
S'v'
sg22
S'r'
sg23
S'a'
sg24
S'n'
ssg25
S'the'
p2006
sg27
g2006
sg28
I4
sg29
I4
sg30
g1984
sg31
g1984
sg32
g33
sg34
g17
sba(imodel.alignment_eq
Eq
p2007
(dp2008
g14
S'n'
sg16
g57
sg18
S'n'
sg19
(dp2009
g21
S'v'
sg22
S'r'
sg23
S'a'
sg24
S'n'
ssg25
S'oven'
p2010
sg27
g2010
sg28
I5
sg29
I5
sg30
g1985
sg31
g1985
sg32
g33
sg34
g57
sbasg60
(lp2011
g1990
ag1994
ag1998
ag2002
ag2006
ag2010
asba(imodel.training_problem
Training_problem
p2012
(dp2013
g4
(lp2014
S'designed'
p2015
aS'by'
p2016
aS'Apple'
p2017
aS','
aS'the'
p2018
aS'iPhone'
p2019
asg10
(lp2020
(imodel.alignment_eq
Eq
p2021
(dp2022
g14
S'n'
sg16
g48
sg18
S'n'
sg19
(dp2023
g21
S'v'
sg22
S'r'
sg23
S'a'
sg24
S'n'
ssg25
S'Apple'
p2024
sg27
g2024
sg28
I2
sg29
I0
sg30
g2017
sg31
g2017
sg32
g33
sg34
g48
sbag35
(g36
g37
NtRp2025
(dp2026
g14
g15
sg16
g655
sg18
g15
sg19
(dp2027
g21
S'v'
sg22
S'r'
sg23
S'a'
sg24
S'n'
ssg25
S"'s"
p2028
sg27
g2028
sg28
I1
sg29
I1
sg30
g2016
sg31
g2016
sg32
g44
sg34
S'POS'
p2029
sba(imodel.alignment_eq
Eq
p2030
(dp2031
g14
S'n'
sg16
g48
sg18
S'n'
sg19
(dp2032
g21
S'v'
sg22
S'r'
sg23
S'a'
sg24
S'n'
ssg25
S'iPhone'
p2033
sg27
g2033
sg28
I5
sg29
I2
sg30
g2019
sg31
g2019
sg32
g33
sg34
g48
sba(imodel.alignment_del
Del
p2034
(dp2035
g31
g2015
sg32
g86
sba(imodel.alignment_del
Del
p2036
(dp2037
g31
S','
sg32
g86
sba(imodel.alignment_del
Del
p2038
(dp2039
g31
g2018
sg32
g86
sbasg60
(lp2040
g2024
ag2028
ag2033
asba(imodel.training_problem
Training_problem
p2041
(dp2042
g4
(lp2043
S'Google'
p2044
aS'cofounder'
p2045
aS'Sergey'
p2046
aS'Brin'
p2047
asg10
(lp2048
(imodel.alignment_eq
Eq
p2049
(dp2050
g14
S'n'
sg16
g48
sg18
S'n'
sg19
(dp2051
g21
S'v'
sg22
S'r'
sg23
S'a'
sg24
S'n'
ssg25
S'Sergey'
p2052
sg27
g2052
sg28
I2
sg29
I0
sg30
g2046
sg31
g2046
sg32
g33
sg34
g48
sba(imodel.alignment_eq
Eq
p2053
(dp2054
g14
S'n'
sg16
g48
sg18
S'n'
sg19
(dp2055
g21
S'v'
sg22
S'r'
sg23
S'a'
sg24
S'n'
ssg25
S'Brin'
p2056
sg27
g2056
sg28
I3
sg29
I1
sg30
g2047
sg31
g2047
sg32
g33
sg34
g48
sba(imodel.alignment_del
Del
p2057
(dp2058
g31
g2044
sg32
g86
sba(imodel.alignment_del
Del
p2059
(dp2060
g31
g2045
sg32
g86
sbasg60
(lp2061
g2052
ag2056
asba(imodel.training_problem
Training_problem
p2062
(dp2063
g4
(lp2064
S'Google'
p2065
aS"'s"
p2066
aS'foray'
p2067
aS'into'
p2068
aS'hardware'
p2069
aS'and'
p2070
aS'futuristic'
p2071
aS'endeavors'
p2072
asg10
(lp2073
(imodel.alignment_eq
Eq
p2074
(dp2075
g14
S'n'
sg16
g48
sg18
S'n'
sg19
(dp2076
g21
S'v'
sg22
S'r'
sg23
S'a'
sg24
S'n'
ssg25
S'Google'
p2077
sg27
g2077
sg28
I0
sg29
I0
sg30
g2065
sg31
g2065
sg32
g33
sg34
g48
sba(imodel.alignment_eq
Eq
p2078
(dp2079
g14
g15
sg16
g2029
sg18
g15
sg19
(dp2080
g21
S'v'
sg22
S'r'
sg23
S'a'
sg24
S'n'
ssg25
S"'s"
p2081
sg27
g2081
sg28
I1
sg29
I1
sg30
g2066
sg31
g2066
sg32
g33
sg34
g2029
sba(imodel.alignment_ins
Ins
p2082
(dp2083
g27
S'special'
p2084
sg32
g54
sba(imodel.alignment_ins
Ins
p2085
(dp2086
g27
S'research'
p2087
sg32
g54
sba(imodel.alignment_ins
Ins
p2088
(dp2089
g27
S'projects'
p2090
sg32
g54
sba(imodel.alignment_del
Del
p2091
(dp2092
g31
g2067
sg32
g86
sba(imodel.alignment_del
Del
p2093
(dp2094
g31
g2068
sg32
g86
sba(imodel.alignment_del
Del
p2095
(dp2096
g31
g2069
sg32
g86
sba(imodel.alignment_del
Del
p2097
(dp2098
g31
g2070
sg32
g86
sba(imodel.alignment_del
Del
p2099
(dp2100
g31
g2071
sg32
g86
sba(imodel.alignment_del
Del
p2101
(dp2102
g31
g2072
sg32
g86
sbasg60
(lp2103
g2077
ag2081
ag2084
ag2087
ag2090
asba(imodel.training_problem
Training_problem
p2104
(dp2105
g4
(lp2106
S'Google'
p2107
aS"'s"
p2108
aS'foray'
p2109
aS'into'
p2110
aS'hardware'
p2111
aS'and'
p2112
aS'futuristic'
p2113
aS'endeavors'
p2114
asg10
(lp2115
(imodel.alignment_eq
Eq
p2116
(dp2117
g14
S'n'
sg16
g48
sg18
S'n'
sg19
(dp2118
g21
S'v'
sg22
S'r'
sg23
S'a'
sg24
S'n'
ssg25
S'Google'
p2119
sg27
g2119
sg28
I0
sg29
I0
sg30
g2107
sg31
g2107
sg32
g33
sg34
g48
sba(imodel.alignment_eq
Eq
p2120
(dp2121
g14
g15
sg16
g2029
sg18
g15
sg19
(dp2122
g21
S'v'
sg22
S'r'
sg23
S'a'
sg24
S'n'
ssg25
S"'s"
p2123
sg27
g2123
sg28
I1
sg29
I1
sg30
g2108
sg31
g2108
sg32
g33
sg34
g2029
sba(imodel.alignment_ins
Ins
p2124
(dp2125
g27
S'dominance'
p2126
sg32
g54
sba(imodel.alignment_ins
Ins
p2127
(dp2128
g27
S'in'
p2129
sg32
g54
sba(imodel.alignment_ins
Ins
p2130
(dp2131
g27
S'search'
p2132
sg32
g54
sba(imodel.alignment_del
Del
p2133
(dp2134
g31
g2109
sg32
g86
sba(imodel.alignment_del
Del
p2135
(dp2136
g31
g2110
sg32
g86
sba(imodel.alignment_del
Del
p2137
(dp2138
g31
g2111
sg32
g86
sba(imodel.alignment_del
Del
p2139
(dp2140
g31
g2112
sg32
g86
sba(imodel.alignment_del
Del
p2141
(dp2142
g31
g2113
sg32
g86
sba(imodel.alignment_del
Del
p2143
(dp2144
g31
g2114
sg32
g86
sbasg60
(lp2145
g2119
ag2123
ag2126
ag2129
ag2132
asba(imodel.training_problem
Training_problem
p2146
(dp2147
g4
(lp2148
S'Apple'
p2149
aS'CEO'
p2150
aS'Tim'
p2151
aS'Cook'
p2152
asg10
(lp2153
(imodel.alignment_eq
Eq
p2154
(dp2155
g14
S'n'
sg16
g48
sg18
S'n'
sg19
(dp2156
g21
S'v'
sg22
S'r'
sg23
S'a'
sg24
S'n'
ssg25
S'Tim'
p2157
sg27
g2157
sg28
I2
sg29
I0
sg30
g2151
sg31
g2151
sg32
g33
sg34
g48
sba(imodel.alignment_eq
Eq
p2158
(dp2159
g14
S'n'
sg16
g48
sg18
S'n'
sg19
(dp2160
g21
S'v'
sg22
S'r'
sg23
S'a'
sg24
S'n'
ssg25
S'Cook'
p2161
sg27
g2161
sg28
I3
sg29
I1
sg30
g2152
sg31
g2152
sg32
g33
sg34
g48
sba(imodel.alignment_ins
Ins
p2162
(dp2163
g27
S','
sg32
g54
sba(imodel.alignment_eq
Eq
p2164
(dp2165
g14
S'n'
sg16
g48
sg18
S'n'
sg19
(dp2166
g21
S'v'
sg22
S'r'
sg23
S'a'
sg24
S'n'
ssg25
S'CEO'
p2167
sg27
g2167
sg28
I1
sg29
I3
sg30
g2150
sg31
g2150
sg32
g33
sg34
g48
sba(imodel.alignment_ins
Ins
p2168
(dp2169
g27
S'of'
p2170
sg32
g54
sba(imodel.alignment_eq
Eq
p2171
(dp2172
g14
S'n'
sg16
g48
sg18
S'n'
sg19
(dp2173
g21
S'v'
sg22
S'r'
sg23
S'a'
sg24
S'n'
ssg25
S'Apple'
p2174
sg27
g2174
sg28
I0
sg29
I5
sg30
g2149
sg31
g2149
sg32
g33
sg34
g48
sbasg60
(lp2175
g2157
ag2161
aS','
ag2167
ag2170
ag2174
asba(imodel.training_problem
Training_problem
p2176
(dp2177
g4
(lp2178
S'Apple'
p2179
aS'CEO'
p2180
aS'Tim'
p2181
aS'Cook'
p2182
asg10
(lp2183
(imodel.alignment_eq
Eq
p2184
(dp2185
g14
S'n'
sg16
g48
sg18
S'n'
sg19
(dp2186
g21
S'v'
sg22
S'r'
sg23
S'a'
sg24
S'n'
ssg25
S'Apple'
p2187
sg27
g2187
sg28
I0
sg29
I0
sg30
g2179
sg31
g2179
sg32
g33
sg34
g48
sba(imodel.alignment_eq
Eq
p2188
(dp2189
g14
S'n'
sg16
g48
sg18
S'n'
sg19
(dp2190
g21
S'v'
sg22
S'r'
sg23
S'a'
sg24
S'n'
ssg25
S'CEO'
p2191
sg27
g2191
sg28
I1
sg29
I1
sg30
g2180
sg31
g2180
sg32
g33
sg34
g48
sbag35
(g36
g37
NtRp2192
(dp2193
g14
S'n'
sg16
g48
sg18
S'n'
sg19
(dp2194
g21
S'v'
sg22
S'r'
sg23
S'a'
sg24
S'n'
ssg25
S'Steve'
p2195
sg27
g2195
sg28
I2
sg29
I2
sg30
g2181
sg31
g2181
sg32
g44
sg34
g48
sbag35
(g36
g37
NtRp2196
(dp2197
g14
S'n'
sg16
g48
sg18
S'n'
sg19
(dp2198
g21
S'v'
sg22
S'r'
sg23
S'a'
sg24
S'n'
ssg25
S'Jobs'
p2199
sg27
g2199
sg28
I3
sg29
I3
sg30
g2182
sg31
g2182
sg32
g44
sg34
g48
sbasg60
(lp2200
g2187
ag2191
ag2195
ag2199
asba(imodel.training_problem
Training_problem
p2201
(dp2202
g4
(lp2203
S'where'
p2204
aS'his'
p2205
aS'company'
p2206
aS"'s"
p2207
aS'future'
p2208
aS'growth'
p2209
aS'lies'
p2210
asg10
(lp2211
(imodel.alignment_eq
Eq
p2212
(dp2213
g14
g15
sg16
S'WRB'
p2214
sg18
g15
sg19
(dp2215
g21
S'v'
sg22
S'r'
sg23
S'a'
sg24
S'n'
ssg25
S'where'
p2216
sg27
g2216
sg28
I0
sg29
I0
sg30
g2204
sg31
g2204
sg32
g33
sg34
g2214
sba(imodel.alignment_ins
Ins
p2217
(dp2218
g27
S'to'
p2219
sg32
g54
sbag35
(g36
g37
NtRp2220
(dp2221
g14
S'n'
sg16
g57
sg18
S'v'
sg19
(dp2222
g21
S'v'
sg22
S'r'
sg23
S'a'
sg24
S'n'
ssg25
S'grow'
p2223
sg27
g2223
sg28
I5
sg29
I2
sg30
g2209
sg31
g2209
sg32
g44
sg34
g1115
sba(imodel.alignment_eq
Eq
p2224
(dp2225
g14
g15
sg16
g499
sg18
g15
sg19
(dp2226
g21
S'v'
sg22
S'r'
sg23
S'a'
sg24
S'n'
ssg25
S'his'
p2227
sg27
g2227
sg28
I1
sg29
I3
sg30
g2205
sg31
g2205
sg32
g33
sg34
g499
sba(imodel.alignment_eq
Eq
p2228
(dp2229
g14
S'n'
sg16
g57
sg18
S'n'
sg19
(dp2230
g21
S'v'
sg22
S'r'
sg23
S'a'
sg24
S'n'
ssg25
S'company'
p2231
sg27
g2231
sg28
I2
sg29
I4
sg30
g2206
sg31
g2206
sg32
g33
sg34
g57
sba(imodel.alignment_del
Del
p2232
(dp2233
g31
g2207
sg32
g86
sba(imodel.alignment_del
Del
p2234
(dp2235
g31
g2208
sg32
g86
sba(imodel.alignment_del
Del
p2236
(dp2237
g31
g2210
sg32
g86
sbasg60
(lp2238
g2216
ag2219
ag2223
ag2227
ag2231
asba(imodel.training_problem
Training_problem
p2239
(dp2240
g4
(lp2241
S'Tim'
p2242
aS'Cook'
p2243
aS'the'
p2244
aS'right'
p2245
aS'man'
p2246
aS'for'
p2247
aS'Apple'
p2248
asg10
(lp2249
(imodel.alignment_eq
Eq
p2250
(dp2251
g14
S'n'
sg16
g48
sg18
S'n'
sg19
(dp2252
g21
S'v'
sg22
S'r'
sg23
S'a'
sg24
S'n'
ssg25
S'Tim'
p2253
sg27
g2253
sg28
I0
sg29
I0
sg30
g2242
sg31
g2242
sg32
g33
sg34
g48
sba(imodel.alignment_eq
Eq
p2254
(dp2255
g14
S'n'
sg16
g48
sg18
S'n'
sg19
(dp2256
g21
S'v'
sg22
S'r'
sg23
S'a'
sg24
S'n'
ssg25
S'Cook'
p2257
sg27
g2257
sg28
I1
sg29
I1
sg30
g2243
sg31
g2243
sg32
g33
sg34
g48
sba(imodel.alignment_eq
Eq
p2258
(dp2259
g14
g15
sg16
g17
sg18
g15
sg19
(dp2260
g21
S'v'
sg22
S'r'
sg23
S'a'
sg24
S'n'
ssg25
S'the'
p2261
sg27
g2261
sg28
I2
sg29
I2
sg30
g2244
sg31
g2244
sg32
g33
sg34
g17
sbag35
(g36
g37
NtRp2262
(dp2263
g14
S'n'
sg16
g57
sg18
S'a'
sg19
(dp2264
g21
S'v'
sg22
S'r'
sg23
S'a'
sg24
S'n'
ssg25
S'best'
p2265
sg27
g2265
sg28
I3
sg29
I3
sg30
g2245
sg31
g2245
sg32
g44
sg34
g45
sba(imodel.alignment_ins
Ins
p2266
(dp2267
g27
S'choice'
p2268
sg32
g54
sba(imodel.alignment_del
Del
p2269
(dp2270
g31
g2246
sg32
g86
sba(imodel.alignment_del
Del
p2271
(dp2272
g31
g2247
sg32
g86
sba(imodel.alignment_del
Del
p2273
(dp2274
g31
g2248
sg32
g86
sbasg60
(lp2275
g2253
ag2257
ag2261
ag2265
ag2268
asba(imodel.training_problem
Training_problem
p2276
(dp2277
g4
(lp2278
S'a'
aS'99'
p2279
aS'percent'
p2280
aS'approval'
p2281
aS'rating'
p2282
asg10
(lp2283
(imodel.alignment_eq
Eq
p2284
(dp2285
g14
g15
sg16
g17
sg18
g15
sg19
(dp2286
g21
S'v'
sg22
S'r'
sg23
S'a'
sg24
S'n'
ssg25
S'a'
sg27
S'a'
sg28
I0
sg29
I0
sg30
S'a'
sg31
S'a'
sg32
g33
sg34
g17
sba(imodel.alignment_ins
Ins
p2287
(dp2288
g27
S'high'
p2289
sg32
g54
sba(imodel.alignment_eq
Eq
p2290
(dp2291
g14
S'n'
sg16
g57
sg18
S'n'
sg19
(dp2292
g21
S'v'
sg22
S'r'
sg23
S'a'
sg24
S'n'
ssg25
S'approval'
p2293
sg27
g2293
sg28
I3
sg29
I2
sg30
g2281
sg31
g2281
sg32
g33
sg34
g57
sba(imodel.alignment_eq
Eq
p2294
(dp2295
g14
S'n'
sg16
g57
sg18
S'n'
sg19
(dp2296
g21
S'v'
sg22
S'r'
sg23
S'a'
sg24
S'n'
ssg25
S'rating'
p2297
sg27
g2297
sg28
I4
sg29
I3
sg30
g2282
sg31
g2282
sg32
g33
sg34
g57
sba(imodel.alignment_del
Del
p2298
(dp2299
g31
g2279
sg32
g86
sba(imodel.alignment_del
Del
p2300
(dp2301
g31
g2280
sg32
g86
sbasg60
(lp2302
S'a'
ag2289
ag2293
ag2297
asba(imodel.training_problem
Training_problem
p2303
(dp2304
g4
(lp2305
S'a'
aS'99'
p2306
aS'percent'
p2307
aS'approval'
p2308
aS'rating'
p2309
asg10
(lp2310
(imodel.alignment_eq
Eq
p2311
(dp2312
g14
g15
sg16
g17
sg18
g15
sg19
(dp2313
g21
S'v'
sg22
S'r'
sg23
S'a'
sg24
S'n'
ssg25
S'a'
sg27
S'a'
sg28
I0
sg29
I0
sg30
S'a'
sg31
S'a'
sg32
g33
sg34
g17
sba(imodel.alignment_ins
Ins
p2314
(dp2315
g27
S'high'
p2316
sg32
g54
sbag35
(g36
g37
NtRp2317
(dp2318
g14
S'n'
sg16
g57
sg18
S'n'
sg19
(dp2319
g21
S'v'
sg22
S'r'
sg23
S'a'
sg24
S'n'
ssg25
S'score'
p2320
sg27
g2320
sg28
I4
sg29
I2
sg30
g2309
sg31
g2309
sg32
g44
sg34
g57
sba(imodel.alignment_del
Del
p2321
(dp2322
g31
g2306
sg32
g86
sba(imodel.alignment_del
Del
p2323
(dp2324
g31
g2307
sg32
g86
sba(imodel.alignment_del
Del
p2325
(dp2326
g31
g2308
sg32
g86
sbasg60
(lp2327
S'a'
ag2316
ag2320
asba(imodel.training_problem
Training_problem
p2328
(dp2329
g4
(lp2330
S'the'
p2331
aS'biggest'
p2332
aS'holdings'
p2333
aS'for'
p2334
aS'50'
p2335
aS'of'
p2336
aS'the'
p2337
aS'wealtheist'
p2338
aS'people'
p2339
asg10
(lp2340
g35
(g36
g37
NtRp2341
(dp2342
g14
S'a'
sg16
g45
sg18
S'a'
sg19
(dp2343
g21
S'v'
sg22
S'r'
sg23
S'a'
sg24
S'n'
ssg25
S'major'
p2344
sg27
g2344
sg28
I1
sg29
I0
sg30
g366
sg31
g2332
sg32
g44
sg34
g40
sba(imodel.alignment_eq
Eq
p2345
(dp2346
g14
S'n'
sg16
g77
sg18
S'n'
sg19
(dp2347
g21
S'v'
sg22
S'r'
sg23
S'a'
sg24
S'n'
ssg25
S'holding'
p2348
sg27
S'holdings'
p2349
sg28
I2
sg29
I1
sg30
S'holding'
p2350
sg31
g2333
sg32
g33
sg34
g77
sba(imodel.alignment_eq
Eq
p2351
(dp2352
g14
g15
sg16
g655
sg18
g15
sg19
(dp2353
g21
S'v'
sg22
S'r'
sg23
S'a'
sg24
S'n'
ssg25
S'for'
p2354
sg27
g2354
sg28
I3
sg29
I2
sg30
g2334
sg31
g2334
sg32
g33
sg34
g655
sba(imodel.alignment_eq
Eq
p2355
(dp2356
g14
g15
sg16
g17
sg18
g15
sg19
(dp2357
g21
S'v'
sg22
S'r'
sg23
S'a'
sg24
S'n'
ssg25
S'the'
p2358
sg27
g2358
sg28
I6
sg29
I3
sg30
g2337
sg31
g2337
sg32
g33
sg34
g17
sba(imodel.alignment_ins
Ins
p2359
(dp2360
g27
S'top'
p2361
sg32
g54
sba(imodel.alignment_eq
Eq
p2362
(dp2363
g14
g15
sg16
g1233
sg18
g15
sg19
(dp2364
g21
S'v'
sg22
S'r'
sg23
S'a'
sg24
S'n'
ssg25
S'50'
p2365
sg27
g2365
sg28
I4
sg29
I5
sg30
g2335
sg31
g2335
sg32
g33
sg34
g1233
sbag35
(g36
g37
NtRp2366
(dp2367
g14
S'n'
sg16
g57
sg18
S'n'
sg19
(dp2368
g21
S'v'
sg22
S'r'
sg23
S'a'
sg24
S'n'
ssg25
S'wealthiest'
p2369
sg27
g2369
sg28
I7
sg29
I6
sg30
g2338
sg31
g2338
sg32
g44
sg34
g57
sba(imodel.alignment_eq
Eq
p2370
(dp2371
g14
S'n'
sg16
g77
sg18
S'n'
sg19
(dp2372
g21
S'v'
sg22
S'r'
sg23
S'a'
sg24
S'n'
ssg25
S'people'
p2373
sg27
g2373
sg28
I8
sg29
I7
sg30
g2339
sg31
g2339
sg32
g33
sg34
g77
sba(imodel.alignment_del
Del
p2374
(dp2375
g31
g2336
sg32
g86
sba(imodel.alignment_del
Del
p2376
(dp2377
g31
g2337
sg32
g86
sbasg60
(lp2378
g2344
ag2349
ag2354
ag2358
ag2361
ag2365
ag2369
ag2373
asba(imodel.training_problem
Training_problem
p2379
(dp2380
g4
(lp2381
S'by'
p2382
aS'Ben'
p2383
aS'Affleck'
p2384
asg10
(lp2385
(imodel.alignment_eq
Eq
p2386
(dp2387
g14
g15
sg16
g655
sg18
g15
sg19
(dp2388
g21
S'v'
sg22
S'r'
sg23
S'a'
sg24
S'n'
ssg25
S'by'
p2389
sg27
g2389
sg28
I0
sg29
I0
sg30
g2382
sg31
g2382
sg32
g33
sg34
g655
sbag35
(g36
g37
NtRp2390
(dp2391
g14
S'n'
sg16
g48
sg18
S'n'
sg19
(dp2392
g21
S'v'
sg22
S'r'
sg23
S'a'
sg24
S'n'
ssg25
S'Afflect'
p2393
sg27
g2393
sg28
I2
sg29
I1
sg30
g2384
sg31
g2384
sg32
g44
sg34
g48
sba(imodel.alignment_del
Del
p2394
(dp2395
g31
g2383
sg32
g86
sbasg60
(lp2396
g2389
ag2393
asba(imodel.training_problem
Training_problem
p2397
(dp2398
g4
(lp2399
S'us'
p2400
aS'on'
p2401
aS'this'
p2402
aS'amazing'
p2403
aS'ride'
p2404
asg10
(lp2405
(imodel.alignment_eq
Eq
p2406
(dp2407
g14
g15
sg16
g655
sg18
g15
sg19
(dp2408
g21
S'v'
sg22
S'r'
sg23
S'a'
sg24
S'n'
ssg25
S'on'
p2409
sg27
g2409
sg28
I1
sg29
I0
sg30
g2401
sg31
g2401
sg32
g33
sg34
g655
sba(imodel.alignment_eq
Eq
p2410
(dp2411
g14
g15
sg16
g17
sg18
g15
sg19
(dp2412
g21
S'v'
sg22
S'r'
sg23
S'a'
sg24
S'n'
ssg25
S'this'
p2413
sg27
g2413
sg28
I2
sg29
I1
sg30
g2402
sg31
g2402
sg32
g33
sg34
g17
sbag35
(g36
g37
NtRp2414
(dp2415
g14
S'n'
sg16
g57
sg18
S'n'
sg19
(dp2416
g21
S'v'
sg22
S'r'
sg23
S'a'
sg24
S'n'
ssg25
S'journey'
p2417
sg27
g2417
sg28
I4
sg29
I2
sg30
g2404
sg31
g2404
sg32
g44
sg34
g57
sba(imodel.alignment_del
Del
p2418
(dp2419
g31
g2400
sg32
g86
sba(imodel.alignment_del
Del
p2420
(dp2421
g31
g2403
sg32
g86
sbasg60
(lp2422
g2409
ag2413
ag2417
asba(imodel.training_problem
Training_problem
p2423
(dp2424
g4
(lp2425
S'UN'
p2426
aS'arms'
p2427
aS'trade'
p2428
aS'treaty'
p2429
asg10
(lp2430
(imodel.alignment_ins
Ins
p2431
(dp2432
g27
S'a'
sg32
g54
sba(imodel.alignment_eq
Eq
p2433
(dp2434
g14
S'n'
sg16
g48
sg18
S'n'
sg19
(dp2435
g21
S'v'
sg22
S'r'
sg23
S'a'
sg24
S'n'
ssg25
S'UN'
p2436
sg27
g2436
sg28
I0
sg29
I1
sg30
g2426
sg31
g2426
sg32
g33
sg34
g48
sba(imodel.alignment_eq
Eq
p2437
(dp2438
g14
S'n'
sg16
g57
sg18
S'n'
sg19
(dp2439
g21
S'v'
sg22
S'r'
sg23
S'a'
sg24
S'n'
ssg25
S'treaty'
p2440
sg27
g2440
sg28
I3
sg29
I2
sg30
g2429
sg31
g2429
sg32
g33
sg34
g57
sba(imodel.alignment_ins
Ins
p2441
(dp2442
g27
S'regarding'
p2443
sg32
g54
sba(imodel.alignment_ins
Ins
p2444
(dp2445
g27
S'the'
p2446
sg32
g54
sbag35
(g36
g37
NtRp2447
(dp2448
g14
S'v'
sg16
S'VBP'
p2449
sg18
S'n'
sg19
(dp2450
g21
S'v'
sg22
S'r'
sg23
S'a'
sg24
S'n'
ssg25
S'sale'
p2451
sg27
g2451
sg28
I2
sg29
I5
sg30
g2428
sg31
g2428
sg32
g44
sg34
g57
sba(imodel.alignment_ins
Ins
p2452
(dp2453
g27
S'of'
p2454
sg32
g54
sba(imodel.alignment_eq
Eq
p2455
(dp2456
g14
S'n'
sg16
g77
sg18
S'n'
sg19
(dp2457
g21
S'v'
sg22
S'r'
sg23
S'a'
sg24
S'n'
ssg25
S'arm'
p2458
sg27
S'arms'
p2459
sg28
I1
sg29
I7
sg30
S'arm'
p2460
sg31
g2427
sg32
g33
sg34
g77
sbasg60
(lp2461
S'a'
ag2436
ag2440
ag2443
ag2446
ag2451
ag2454
ag2459
asba(imodel.training_problem
Training_problem
p2462
(dp2463
g4
(lp2464
S'the'
p2465
aS'sweetest'
p2466
aS'and'
p2467
aS'cutest'
p2468
aS'kitten'
p2469
asg10
(lp2470
g35
(g36
g37
NtRp2471
(dp2472
g14
g15
sg16
g17
sg18
g15
sg19
(dp2473
g21
S'v'
sg22
S'r'
sg23
S'a'
sg24
S'n'
ssg25
S'a'
sg27
S'a'
sg28
I0
sg29
I0
sg30
g2465
sg31
g2465
sg32
g44
sg34
g17
sbag35
(g36
g37
NtRp2474
(dp2475
g14
S'a'
sg16
g45
sg18
S'a'
sg19
(dp2476
g21
S'v'
sg22
S'r'
sg23
S'a'
sg24
S'n'
ssg25
S'sweet'
p2477
sg27
g2477
sg28
I1
sg29
I1
sg30
S'sweet'
p2478
sg31
g2466
sg32
g44
sg34
g40
sbag35
(g36
g37
NtRp2479
(dp2480
g14
S'r'
sg16
g950
sg18
S'n'
sg19
(dp2481
g21
S'v'
sg22
S'r'
sg23
S'a'
sg24
S'n'
ssg25
S'cat'
p2482
sg27
g2482
sg28
I4
sg29
I2
sg30
g2469
sg31
g2469
sg32
g44
sg34
g57
sba(imodel.alignment_del
Del
p2483
(dp2484
g31
g2467
sg32
g86
sba(imodel.alignment_del
Del
p2485
(dp2486
g31
g2468
sg32
g86
sbasg60
(lp2487
S'a'
ag2477
ag2482
asba(imodel.training_problem
Training_problem
p2488
(dp2489
g4
(lp2490
S'director'
p2491
aS'of'
p2492
aS'the'
p2493
aS'Goddard'
p2494
aS'Institute'
p2495
aS'for'
p2496
aS'Space'
p2497
aS'Studies'
p2498
aS'and'
p2499
aS'a'
aS'controversial'
p2500
aS'and'
p2501
aS'highly'
p2502
aS'vocal'
p2503
aS'voice'
p2504
aS'of'
p2505
aS'alarm'
p2506
aS'about'
p2507
aS'the'
p2508
aS'planet'
p2509
aS"'s"
p2510
aS'changing'
p2511
aS'climate'
p2512
asg10
(lp2513
(imodel.alignment_eq
Eq
p2514
(dp2515
g14
S'n'
sg16
g57
sg18
S'n'
sg19
(dp2516
g21
S'v'
sg22
S'r'
sg23
S'a'
sg24
S'n'
ssg25
S'director'
p2517
sg27
g2517
sg28
I0
sg29
I0
sg30
g2491
sg31
g2491
sg32
g33
sg34
g57
sba(imodel.alignment_eq
Eq
p2518
(dp2519
g14
g15
sg16
g655
sg18
g15
sg19
(dp2520
g21
S'v'
sg22
S'r'
sg23
S'a'
sg24
S'n'
ssg25
S'of'
p2521
sg27
g2521
sg28
I1
sg29
I1
sg30
g2492
sg31
g2492
sg32
g33
sg34
g655
sba(imodel.alignment_eq
Eq
p2522
(dp2523
g14
g15
sg16
g17
sg18
g15
sg19
(dp2524
g21
S'v'
sg22
S'r'
sg23
S'a'
sg24
S'n'
ssg25
S'the'
p2525
sg27
g2525
sg28
I2
sg29
I2
sg30
g2493
sg31
g2493
sg32
g33
sg34
g17
sba(imodel.alignment_eq
Eq
p2526
(dp2527
g14
S'n'
sg16
g48
sg18
S'n'
sg19
(dp2528
g21
S'v'
sg22
S'r'
sg23
S'a'
sg24
S'n'
ssg25
S'Goddard'
p2529
sg27
g2529
sg28
I3
sg29
I3
sg30
g2494
sg31
g2494
sg32
g33
sg34
g48
sba(imodel.alignment_eq
Eq
p2530
(dp2531
g14
S'n'
sg16
g48
sg18
S'n'
sg19
(dp2532
g21
S'v'
sg22
S'r'
sg23
S'a'
sg24
S'n'
ssg25
S'Institute'
p2533
sg27
g2533
sg28
I4
sg29
I4
sg30
g2495
sg31
g2495
sg32
g33
sg34
g48
sba(imodel.alignment_eq
Eq
p2534
(dp2535
g14
g15
sg16
g655
sg18
g15
sg19
(dp2536
g21
S'v'
sg22
S'r'
sg23
S'a'
sg24
S'n'
ssg25
S'for'
p2537
sg27
g2537
sg28
I5
sg29
I5
sg30
g2496
sg31
g2496
sg32
g33
sg34
g655
sba(imodel.alignment_eq
Eq
p2538
(dp2539
g14
S'n'
sg16
g48
sg18
S'n'
sg19
(dp2540
g21
S'v'
sg22
S'r'
sg23
S'a'
sg24
S'n'
ssg25
S'Space'
p2541
sg27
g2541
sg28
I6
sg29
I6
sg30
g2497
sg31
g2497
sg32
g33
sg34
g48
sba(imodel.alignment_eq
Eq
p2542
(dp2543
g14
S'n'
sg16
g675
sg18
S'n'
sg19
(dp2544
g21
S'v'
sg22
S'r'
sg23
S'a'
sg24
S'n'
ssg25
S'Studies'
p2545
sg27
g2545
sg28
I7
sg29
I7
sg30
g2498
sg31
g2498
sg32
g33
sg34
g675
sba(imodel.alignment_del
Del
p2546
(dp2547
g31
g2499
sg32
g86
sba(imodel.alignment_del
Del
p2548
(dp2549
g31
S'a'
sg32
g86
sba(imodel.alignment_del
Del
p2550
(dp2551
g31
g2500
sg32
g86
sba(imodel.alignment_del
Del
p2552
(dp2553
g31
g2501
sg32
g86
sba(imodel.alignment_del
Del
p2554
(dp2555
g31
g2502
sg32
g86
sba(imodel.alignment_del
Del
p2556
(dp2557
g31
g2503
sg32
g86
sba(imodel.alignment_del
Del
p2558
(dp2559
g31
g2504
sg32
g86
sba(imodel.alignment_del
Del
p2560
(dp2561
g31
g2505
sg32
g86
sba(imodel.alignment_del
Del
p2562
(dp2563
g31
g2506
sg32
g86
sba(imodel.alignment_del
Del
p2564
(dp2565
g31
g2507
sg32
g86
sba(imodel.alignment_del
Del
p2566
(dp2567
g31
g2508
sg32
g86
sba(imodel.alignment_del
Del
p2568
(dp2569
g31
g2509
sg32
g86
sba(imodel.alignment_del
Del
p2570
(dp2571
g31
g2510
sg32
g86
sba(imodel.alignment_del
Del
p2572
(dp2573
g31
g2511
sg32
g86
sba(imodel.alignment_del
Del
p2574
(dp2575
g31
g2512
sg32
g86
sbasg60
(lp2576
g2517
ag2521
ag2525
ag2529
ag2533
ag2537
ag2541
ag2545
asba(imodel.training_problem
Training_problem
p2577
(dp2578
g4
(lp2579
S'Reknown'
p2580
aS'for'
p2581
aS'being'
p2582
aS'a'
aS'piece'
p2583
aS'of'
p2584
aS'shit'
p2585
aS','
aS'Fox'
p2586
aS'News'
p2587
asg10
(lp2588
g35
(g36
g37
NtRp2589
(dp2590
g14
S'n'
sg16
g57
sg18
S'n'
sg19
(dp2591
g21
S'v'
sg22
S'r'
sg23
S'a'
sg24
S'n'
ssg25
S'Shit'
p2592
sg27
g2592
sg28
I6
sg29
I0
sg30
g2585
sg31
g2585
sg32
g44
sg34
g57
sbag35
(g36
g37
NtRp2593
(dp2594
g14
S'n'
sg16
g57
sg18
S'n'
sg19
(dp2595
g21
S'v'
sg22
S'r'
sg23
S'a'
sg24
S'n'
ssg25
S'heap'
p2596
sg27
g2596
sg28
I4
sg29
I1
sg30
g2583
sg31
g2583
sg32
g44
sg34
g57
sba(imodel.alignment_eq
Eq
p2597
(dp2598
g14
S'n'
sg16
g48
sg18
S'n'
sg19
(dp2599
g21
S'v'
sg22
S'r'
sg23
S'a'
sg24
S'n'
ssg25
S'Fox'
p2600
sg27
g2600
sg28
I8
sg29
I2
sg30
g2586
sg31
g2586
sg32
g33
sg34
g48
sba(imodel.alignment_eq
Eq
p2601
(dp2602
g14
S'n'
sg16
g48
sg18
S'n'
sg19
(dp2603
g21
S'v'
sg22
S'r'
sg23
S'a'
sg24
S'n'
ssg25
S'News'
p2604
sg27
g2604
sg28
I9
sg29
I3
sg30
g2587
sg31
g2587
sg32
g33
sg34
g48
sba(imodel.alignment_del
Del
p2605
(dp2606
g31
g2580
sg32
g86
sba(imodel.alignment_del
Del
p2607
(dp2608
g31
g2581
sg32
g86
sba(imodel.alignment_del
Del
p2609
(dp2610
g31
g2582
sg32
g86
sba(imodel.alignment_del
Del
p2611
(dp2612
g31
S'a'
sg32
g86
sba(imodel.alignment_del
Del
p2613
(dp2614
g31
g2584
sg32
g86
sba(imodel.alignment_del
Del
p2615
(dp2616
g31
S','
sg32
g86
sbasg60
(lp2617
g2592
ag2596
ag2600
ag2604
asba(imodel.training_problem
Training_problem
p2618
(dp2619
g4
(lp2620
S'the'
p2621
aS'misanthropes'
p2622
aS'at'
p2623
aS'Fox'
p2624
aS'News'
p2625
asg10
(lp2626
(imodel.alignment_eq
Eq
p2627
(dp2628
g14
g15
sg16
g17
sg18
g15
sg19
(dp2629
g21
S'v'
sg22
S'r'
sg23
S'a'
sg24
S'n'
ssg25
S'the'
p2630
sg27
g2630
sg28
I0
sg29
I0
sg30
g2621
sg31
g2621
sg32
g33
sg34
g17
sbag35
(g36
g37
NtRp2631
(dp2632
g14
S'n'
sg16
g77
sg18
S'a'
sg19
(dp2633
g21
S'v'
sg22
S'r'
sg23
S'a'
sg24
S'n'
ssg25
S'misanthropic'
p2634
sg27
g2634
sg28
I1
sg29
I1
sg30
S'misanthrope'
p2635
sg31
g2622
sg32
g44
sg34
g40
sba(imodel.alignment_ins
Ins
p2636
(dp2637
g27
S'assholes'
p2638
sg32
g54
sba(imodel.alignment_eq
Eq
p2639
(dp2640
g14
g15
sg16
g655
sg18
g15
sg19
(dp2641
g21
S'v'
sg22
S'r'
sg23
S'a'
sg24
S'n'
ssg25
S'at'
p2642
sg27
g2642
sg28
I2
sg29
I3
sg30
g2623
sg31
g2623
sg32
g33
sg34
g655
sba(imodel.alignment_eq
Eq
p2643
(dp2644
g14
S'n'
sg16
g48
sg18
S'n'
sg19
(dp2645
g21
S'v'
sg22
S'r'
sg23
S'a'
sg24
S'n'
ssg25
S'Fox'
p2646
sg27
g2646
sg28
I3
sg29
I4
sg30
g2624
sg31
g2624
sg32
g33
sg34
g48
sba(imodel.alignment_eq
Eq
p2647
(dp2648
g14
S'n'
sg16
g48
sg18
S'n'
sg19
(dp2649
g21
S'v'
sg22
S'r'
sg23
S'a'
sg24
S'n'
ssg25
S'News'
p2650
sg27
g2650
sg28
I4
sg29
I5
sg30
g2625
sg31
g2625
sg32
g33
sg34
g48
sbasg60
(lp2651
g2630
ag2634
ag2638
ag2642
ag2646
ag2650
asba(imodel.training_problem
Training_problem
p2652
(dp2653
g4
(lp2654
S'on'
p2655
aS'a'
aS'smartphone'
p2656
asg10
(lp2657
(imodel.alignment_eq
Eq
p2658
(dp2659
g14
g15
sg16
g655
sg18
g15
sg19
(dp2660
g21
S'v'
sg22
S'r'
sg23
S'a'
sg24
S'n'
ssg25
S'on'
p2661
sg27
g2661
sg28
I0
sg29
I0
sg30
g2655
sg31
g2655
sg32
g33
sg34
g655
sba(imodel.alignment_ins
Ins
p2662
(dp2663
g27
S'new'
p2664
sg32
g54
sbag35
(g36
g37
NtRp2665
(dp2666
g14
S'n'
sg16
g57
sg18
S'n'
sg19
(dp2667
g21
S'v'
sg22
S'r'
sg23
S'a'
sg24
S'n'
ssg25
S'smartphones'
p2668
sg27
g2668
sg28
I2
sg29
I2
sg30
g2656
sg31
g2656
sg32
g44
sg34
g77
sba(imodel.alignment_del
Del
p2669
(dp2670
g31
S'a'
sg32
g86
sbasg60
(lp2671
g2661
ag2664
ag2668
asba(imodel.training_problem
Training_problem
p2672
(dp2673
g4
(lp2674
S'the'
p2675
aS'faux'
p2676
aS'press'
p2677
aS'release'
p2678
asg10
(lp2679
g35
(g36
g37
NtRp2680
(dp2681
g14
g15
sg16
g17
sg18
g15
sg19
(dp2682
g21
S'v'
sg22
S'r'
sg23
S'a'
sg24
S'n'
ssg25
S'a'
sg27
S'a'
sg28
I0
sg29
I0
sg30
g2675
sg31
g2675
sg32
g44
sg34
g17
sbag35
(g36
g37
NtRp2683
(dp2684
g14
S'n'
sg16
g57
sg18
S'n'
sg19
(dp2685
g21
S'v'
sg22
S'r'
sg23
S'a'
sg24
S'n'
ssg25
S'fake'
p2686
sg27
g2686
sg28
I1
sg29
I1
sg30
g2676
sg31
g2676
sg32
g44
sg34
g57
sba(imodel.alignment_eq
Eq
p2687
(dp2688
g14
S'n'
sg16
g57
sg18
S'n'
sg19
(dp2689
g21
S'v'
sg22
S'r'
sg23
S'a'
sg24
S'n'
ssg25
S'press'
p2690
sg27
g2690
sg28
I2
sg29
I2
sg30
g2677
sg31
g2677
sg32
g33
sg34
g57
sba(imodel.alignment_eq
Eq
p2691
(dp2692
g14
S'n'
sg16
g57
sg18
S'n'
sg19
(dp2693
g21
S'v'
sg22
S'r'
sg23
S'a'
sg24
S'n'
ssg25
S'release'
p2694
sg27
g2694
sg28
I3
sg29
I3
sg30
g2678
sg31
g2678
sg32
g33
sg34
g57
sbasg60
(lp2695
S'a'
ag2686
ag2690
ag2694
asba(imodel.training_problem
Training_problem
p2696
(dp2697
g4
(lp2698
S'just'
p2699
aS'after'
p2700
aS'news'
p2701
aS'that'
p2702
aS'Amazon'
p2703
aS'offered'
p2704
aS'Kindel'
p2705
aS'a'
aS'job'
p2706
asg10
(lp2707
(imodel.alignment_eq
Eq
p2708
(dp2709
g14
g15
sg16
g655
sg18
g15
sg19
(dp2710
g21
S'v'
sg22
S'r'
sg23
S'a'
sg24
S'n'
ssg25
S'after'
p2711
sg27
g2711
sg28
I1
sg29
I0
sg30
g2700
sg31
g2700
sg32
g33
sg34
g655
sba(imodel.alignment_eq
Eq
p2712
(dp2713
g14
S'n'
sg16
g48
sg18
S'n'
sg19
(dp2714
g21
S'v'
sg22
S'r'
sg23
S'a'
sg24
S'n'
ssg25
S'Amazon'
p2715
sg27
g2715
sg28
I4
sg29
I1
sg30
g2703
sg31
g2703
sg32
g33
sg34
g48
sba(imodel.alignment_ins
Ins
p2716
(dp2717
g27
S'announced'
p2718
sg32
g54
sba(imodel.alignment_eq
Eq
p2719
(dp2720
g14
g15
sg16
g655
sg18
g15
sg19
(dp2721
g21
S'v'
sg22
S'r'
sg23
S'a'
sg24
S'n'
ssg25
S'that'
p2722
sg27
g2722
sg28
I3
sg29
I3
sg30
g2702
sg31
g2702
sg32
g33
sg34
g655
sba(imodel.alignment_eq
Eq
p2723
(dp2724
g14
S'n'
sg16
g48
sg18
S'n'
sg19
(dp2725
g21
S'v'
sg22
S'r'
sg23
S'a'
sg24
S'n'
ssg25
S'Kindel'
p2726
sg27
g2726
sg28
I6
sg29
I4
sg30
g2705
sg31
g2705
sg32
g33
sg34
g48
sba(imodel.alignment_ins
Ins
p2727
(dp2728
g27
S'was'
p2729
sg32
g54
sba(imodel.alignment_ins
Ins
p2730
(dp2731
g27
S'hired'
p2732
sg32
g54
sba(imodel.alignment_del
Del
p2733
(dp2734
g31
g2699
sg32
g86
sba(imodel.alignment_del
Del
p2735
(dp2736
g31
g2701
sg32
g86
sba(imodel.alignment_del
Del
p2737
(dp2738
g31
g2704
sg32
g86
sba(imodel.alignment_del
Del
p2739
(dp2740
g31
S'a'
sg32
g86
sba(imodel.alignment_del
Del
p2741
(dp2742
g31
g2706
sg32
g86
sbasg60
(lp2743
g2711
ag2715
ag2718
ag2722
ag2726
ag2729
ag2732
asba(imodel.training_problem
Training_problem
p2744
(dp2745
g4
(lp2746
S'the'
p2747
aS'escaped'
p2748
aS'snakes'
p2749
asg10
(lp2750
(imodel.alignment_eq
Eq
p2751
(dp2752
g14
g15
sg16
g17
sg18
g15
sg19
(dp2753
g21
S'v'
sg22
S'r'
sg23
S'a'
sg24
S'n'
ssg25
S'the'
p2754
sg27
g2754
sg28
I0
sg29
I0
sg30
g2747
sg31
g2747
sg32
g33
sg34
g17
sbag35
(g36
g37
NtRp2755
(dp2756
g14
S'v'
sg16
g149
sg18
S'n'
sg19
(dp2757
g21
S'v'
sg22
S'r'
sg23
S'a'
sg24
S'n'
ssg25
S'loose'
p2758
sg27
g2758
sg28
I1
sg29
I1
sg30
S'escape'
p2759
sg31
g2748
sg32
g44
sg34
g57
sba(imodel.alignment_eq
Eq
p2760
(dp2761
g14
S'n'
sg16
g77
sg18
S'v'
sg19
(dp2762
g21
S'v'
sg22
S'r'
sg23
S'a'
sg24
S'n'
ssg25
S'snake'
p2763
sg27
S'snakes'
p2764
sg28
I2
sg29
I2
sg30
S'snake'
p2765
sg31
g2749
sg32
g33
sg34
g1905
sbasg60
(lp2766
g2754
ag2758
ag2764
asba(imodel.training_problem
Training_problem
p2767
(dp2768
g4
(lp2769
S'A'
aS'version'
p2770
aS'of'
p2771
aS'that'
p2772
aS'last'
p2773
aS'sentence'
p2774
asg10
(lp2775
(imodel.alignment_eq
Eq
p2776
(dp2777
g14
g15
sg16
g17
sg18
g15
sg19
(dp2778
g21
S'v'
sg22
S'r'
sg23
S'a'
sg24
S'n'
ssg25
S'A'
sg27
S'A'
sg28
I0
sg29
I0
sg30
S'A'
sg31
S'A'
sg32
g33
sg34
g17
sbag35
(g36
g37
NtRp2779
(dp2780
g14
S'n'
sg16
g57
sg18
S'n'
sg19
(dp2781
g21
S'v'
sg22
S'r'
sg23
S'a'
sg24
S'n'
ssg25
S'paraphrase'
p2782
sg27
g2782
sg28
I1
sg29
I1
sg30
g2770
sg31
g2770
sg32
g44
sg34
g57
sba(imodel.alignment_del
Del
p2783
(dp2784
g31
g2771
sg32
g86
sba(imodel.alignment_del
Del
p2785
(dp2786
g31
g2772
sg32
g86
sba(imodel.alignment_del
Del
p2787
(dp2788
g31
g2773
sg32
g86
sba(imodel.alignment_del
Del
p2789
(dp2790
g31
g2774
sg32
g86
sbasg60
(lp2791
S'A'
ag2782
asba(imodel.training_problem
Training_problem
p2792
(dp2793
g4
(lp2794
S'the'
p2795
aS'group'
p2796
aS'of'
p2797
aS'wild'
p2798
aS'dogs'
p2799
asg10
(lp2800
g35
(g36
g37
NtRp2801
(dp2802
g14
g15
sg16
g17
sg18
g15
sg19
(dp2803
g21
S'v'
sg22
S'r'
sg23
S'a'
sg24
S'n'
ssg25
S'a'
sg27
S'a'
sg28
I0
sg29
I0
sg30
g2795
sg31
g2795
sg32
g44
sg34
g17
sbag35
(g36
g37
NtRp2804
(dp2805
g14
S'n'
sg16
g57
sg18
S'n'
sg19
(dp2806
g21
S'v'
sg22
S'r'
sg23
S'a'
sg24
S'n'
ssg25
S'pack'
p2807
sg27
g2807
sg28
I1
sg29
I1
sg30
g2796
sg31
g2796
sg32
g44
sg34
g57
sba(imodel.alignment_eq
Eq
p2808
(dp2809
g14
g15
sg16
g655
sg18
g15
sg19
(dp2810
g21
S'v'
sg22
S'r'
sg23
S'a'
sg24
S'n'
ssg25
S'of'
p2811
sg27
g2811
sg28
I2
sg29
I2
sg30
g2797
sg31
g2797
sg32
g33
sg34
g655
sbag35
(g36
g37
NtRp2812
(dp2813
g14
S'a'
sg16
g40
sg18
S'a'
sg19
(dp2814
g21
S'v'
sg22
S'r'
sg23
S'a'
sg24
S'n'
ssg25
S'feral'
p2815
sg27
g2815
sg28
I3
sg29
I3
sg30
g2798
sg31
g2798
sg32
g44
sg34
g40
sba(imodel.alignment_eq
Eq
p2816
(dp2817
g14
S'n'
sg16
g77
sg18
S'n'
sg19
(dp2818
g21
S'v'
sg22
S'r'
sg23
S'a'
sg24
S'n'
ssg25
S'dog'
p2819
sg27
S'dogs'
p2820
sg28
I4
sg29
I4
sg30
S'dog'
p2821
sg31
g2799
sg32
g33
sg34
g77
sbasg60
(lp2822
S'a'
ag2807
ag2811
ag2815
ag2820
asba(imodel.training_problem
Training_problem
p2823
(dp2824
g4
(lp2825
S'the'
p2826
aS'sock'
p2827
aS'drawer'
p2828
asg10
(lp2829
g35
(g36
g37
NtRp2830
(dp2831
g14
g15
sg16
g17
sg18
g15
sg19
(dp2832
g21
S'v'
sg22
S'r'
sg23
S'a'
sg24
S'n'
ssg25
S'a'
sg27
S'a'
sg28
I0
sg29
I0
sg30
g2826
sg31
g2826
sg32
g44
sg34
g17
sba(imodel.alignment_ins
Ins
p2833
(dp2834
g27
S'tidy'
p2835
sg32
g54
sba(imodel.alignment_ins
Ins
p2836
(dp2837
g27
S'bathroom'
p2838
sg32
g54
sba(imodel.alignment_del
Del
p2839
(dp2840
g31
g2827
sg32
g86
sba(imodel.alignment_del
Del
p2841
(dp2842
g31
g2828
sg32
g86
sbasg60
(lp2843
S'a'
ag2835
ag2838
asba(imodel.training_problem
Training_problem
p2844
(dp2845
g4
(lp2846
S'the'
p2847
aS'Emancipation'
p2848
aS'Proclamation'
p2849
asg10
(lp2850
(imodel.alignment_ins
Ins
p2851
(dp2852
g27
S'several'
p2853
sg32
g54
sba(imodel.alignment_ins
Ins
p2854
(dp2855
g27
S'witnesses'
p2856
sg32
g54
sba(imodel.alignment_del
Del
p2857
(dp2858
g31
g2847
sg32
g86
sba(imodel.alignment_del
Del
p2859
(dp2860
g31
g2848
sg32
g86
sba(imodel.alignment_del
Del
p2861
(dp2862
g31
g2849
sg32
g86
sbasg60
(lp2863
g2853
ag2856
asba(imodel.training_problem
Training_problem
p2864
(dp2865
g4
(lp2866
S'upholders'
p2867
aS'of'
p2868
aS'the'
p2869
aS'Constitution'
p2870
asg10
(lp2871
g35
(g36
g37
NtRp2872
(dp2873
g14
S'n'
sg16
g77
sg18
S'n'
sg19
(dp2874
g21
S'v'
sg22
S'r'
sg23
S'a'
sg24
S'n'
ssg25
S'fan'
p2875
sg27
S'fans'
p2876
sg28
I0
sg29
I0
sg30
S'upholder'
p2877
sg31
g2867
sg32
g44
sg34
g77
sba(imodel.alignment_eq
Eq
p2878
(dp2879
g14
g15
sg16
g655
sg18
g15
sg19
(dp2880
g21
S'v'
sg22
S'r'
sg23
S'a'
sg24
S'n'
ssg25
S'of'
p2881
sg27
g2881
sg28
I1
sg29
I1
sg30
g2868
sg31
g2868
sg32
g33
sg34
g655
sba(imodel.alignment_ins
Ins
p2882
(dp2883
g27
S'Maroon'
p2884
sg32
g54
sba(imodel.alignment_ins
Ins
p2885
(dp2886
g27
S'5'
sg32
g54
sba(imodel.alignment_del
Del
p2887
(dp2888
g31
g2869
sg32
g86
sba(imodel.alignment_del
Del
p2889
(dp2890
g31
g2870
sg32
g86
sbasg60
(lp2891
g2876
ag2881
ag2884
aS'5'
asba(imodel.training_problem
Training_problem
p2892
(dp2893
g4
(lp2894
S'the'
p2895
aS'tablet'
p2896
aS'market'
p2897
asg10
(lp2898
(imodel.alignment_eq
Eq
p2899
(dp2900
g14
g15
sg16
g17
sg18
g15
sg19
(dp2901
g21
S'v'
sg22
S'r'
sg23
S'a'
sg24
S'n'
ssg25
S'the'
p2902
sg27
g2902
sg28
I0
sg29
I0
sg30
g2895
sg31
g2895
sg32
g33
sg34
g17
sba(imodel.alignment_eq
Eq
p2903
(dp2904
g14
S'n'
sg16
g57
sg18
S'n'
sg19
(dp2905
g21
S'v'
sg22
S'r'
sg23
S'a'
sg24
S'n'
ssg25
S'market'
p2906
sg27
g2906
sg28
I2
sg29
I1
sg30
g2897
sg31
g2897
sg32
g33
sg34
g57
sba(imodel.alignment_ins
Ins
p2907
(dp2908
g27
S'for'
p2909
sg32
g54
sba(imodel.alignment_ins
Ins
p2910
(dp2911
g27
S'smartphones'
p2912
sg32
g54
sba(imodel.alignment_ins
Ins
p2913
(dp2914
g27
S'and'
p2915
sg32
g54
sbag35
(g36
g37
NtRp2916
(dp2917
g14
S'n'
sg16
g57
sg18
S'n'
sg19
(dp2918
g21
S'v'
sg22
S'r'
sg23
S'a'
sg24
S'n'
ssg25
S'tablet'
p2919
sg27
S'tablets'
p2920
sg28
I1
sg29
I5
sg30
g2896
sg31
g2896
sg32
g44
sg34
g77
sbasg60
(lp2921
g2902
ag2906
ag2909
ag2912
ag2915
ag2920
asba(imodel.training_problem
Training_problem
p2922
(dp2923
g4
(lp2924
S'the'
p2925
aS'laborious'
p2926
aS'work'
p2927
asg10
(lp2928
(imodel.alignment_eq
Eq
p2929
(dp2930
g14
g15
sg16
g17
sg18
g15
sg19
(dp2931
g21
S'v'
sg22
S'r'
sg23
S'a'
sg24
S'n'
ssg25
S'the'
p2932
sg27
g2932
sg28
I0
sg29
I0
sg30
g2925
sg31
g2925
sg32
g33
sg34
g17
sbag35
(g36
g37
NtRp2933
(dp2934
g14
S'a'
sg16
g40
sg18
S'a'
sg19
(dp2935
g21
S'v'
sg22
S'r'
sg23
S'a'
sg24
S'n'
ssg25
S'arduous'
p2936
sg27
g2936
sg28
I1
sg29
I1
sg30
g2926
sg31
g2926
sg32
g44
sg34
g40
sba(imodel.alignment_eq
Eq
p2937
(dp2938
g14
S'n'
sg16
g57
sg18
S'n'
sg19
(dp2939
g21
S'v'
sg22
S'r'
sg23
S'a'
sg24
S'n'
ssg25
S'work'
p2940
sg27
g2940
sg28
I2
sg29
I2
sg30
g2927
sg31
g2927
sg32
g33
sg34
g57
sbasg60
(lp2941
g2932
ag2936
ag2940
asba(imodel.training_problem
Training_problem
p2942
(dp2943
g4
(lp2944
S'a'
aS'critical'
p2945
aS'component'
p2946
aS'of'
p2947
aS'the'
p2948
aS'smartphone'
p2949
aS'ecosystem'
p2950
asg10
(lp2951
g35
(g36
g37
NtRp2952
(dp2953
g14
g15
sg16
g17
sg18
g15
sg19
(dp2954
g21
S'v'
sg22
S'r'
sg23
S'a'
sg24
S'n'
ssg25
S'an'
p2955
sg27
g2955
sg28
I0
sg29
I0
sg30
S'a'
sg31
S'a'
sg32
g44
sg34
g17
sbag35
(g36
g37
NtRp2956
(dp2957
g14
S'a'
sg16
g40
sg18
S'a'
sg19
(dp2958
g21
S'v'
sg22
S'r'
sg23
S'a'
sg24
S'n'
ssg25
S'important'
p2959
sg27
g2959
sg28
I1
sg29
I1
sg30
g2945
sg31
g2945
sg32
g44
sg34
g40
sba(imodel.alignment_ins
Ins
p2960
(dp2961
g27
S'opportunity'
p2962
sg32
g54
sba(imodel.alignment_ins
Ins
p2963
(dp2964
g27
S'for'
p2965
sg32
g54
sbag35
(g36
g37
NtRp2966
(dp2967
g14
S'n'
sg16
g57
sg18
S'n'
sg19
(dp2968
g21
S'v'
sg22
S'r'
sg23
S'a'
sg24
S'n'
ssg25
S'smartphones'
p2969
sg27
g2969
sg28
I5
sg29
I4
sg30
g2949
sg31
g2949
sg32
g44
sg34
g77
sba(imodel.alignment_del
Del
p2970
(dp2971
g31
g2946
sg32
g86
sba(imodel.alignment_del
Del
p2972
(dp2973
g31
g2947
sg32
g86
sba(imodel.alignment_del
Del
p2974
(dp2975
g31
g2948
sg32
g86
sba(imodel.alignment_del
Del
p2976
(dp2977
g31
g2950
sg32
g86
sbasg60
(lp2978
g2955
ag2959
ag2962
ag2965
ag2969
asba(imodel.training_problem
Training_problem
p2979
(dp2980
g4
(lp2981
S'Microsoft'
p2982
aS'veteran'
p2983
asg10
(lp2984
(imodel.alignment_ins
Ins
p2985
(dp2986
g27
S'long'
p2987
sg32
g54
sba(imodel.alignment_ins
Ins
p2988
(dp2989
g27
S'time'
p2990
sg32
g54
sba(imodel.alignment_eq
Eq
p2991
(dp2992
g14
S'n'
sg16
g48
sg18
S'n'
sg19
(dp2993
g21
S'v'
sg22
S'r'
sg23
S'a'
sg24
S'n'
ssg25
S'Microsoft'
p2994
sg27
g2994
sg28
I0
sg29
I2
sg30
g2982
sg31
g2982
sg32
g33
sg34
g48
sbag35
(g36
g37
NtRp2995
(dp2996
g14
S'v'
sg16
g278
sg18
S'n'
sg19
(dp2997
g21
S'v'
sg22
S'r'
sg23
S'a'
sg24
S'n'
ssg25
S'employee'
p2998
sg27
g2998
sg28
I1
sg29
I3
sg30
g2983
sg31
g2983
sg32
g44
sg34
g57
sbasg60
(lp2999
g2987
ag2990
ag2994
ag2998
asba(imodel.training_problem
Training_problem
p3000
(dp3001
g4
(lp3002
S'of'
p3003
aS'a'
aS'massive'
p3004
aS'collection'
p3005
aS'of'
p3006
aS'servers'
p3007
asg10
(lp3008
(imodel.alignment_eq
Eq
p3009
(dp3010
g14
g15
sg16
g17
sg18
g15
sg19
(dp3011
g21
S'v'
sg22
S'r'
sg23
S'a'
sg24
S'n'
ssg25
S'a'
sg27
S'a'
sg28
I1
sg29
I0
sg30
S'a'
sg31
S'a'
sg32
g33
sg34
g17
sbag35
(g36
g37
NtRp3012
(dp3013
g14
S'a'
sg16
g40
sg18
S'a'
sg19
(dp3014
g21
S'v'
sg22
S'r'
sg23
S'a'
sg24
S'n'
ssg25
S'huge'
p3015
sg27
g3015
sg28
I2
sg29
I1
sg30
g3004
sg31
g3004
sg32
g44
sg34
g40
sbag35
(g36
g37
NtRp3016
(dp3017
g14
S'n'
sg16
g57
sg18
S'n'
sg19
(dp3018
g21
S'v'
sg22
S'r'
sg23
S'a'
sg24
S'n'
ssg25
S'network'
p3019
sg27
g3019
sg28
I3
sg29
I2
sg30
g3005
sg31
g3005
sg32
g44
sg34
g57
sba(imodel.alignment_eq
Eq
p3020
(dp3021
g14
g15
sg16
g655
sg18
g15
sg19
(dp3022
g21
S'v'
sg22
S'r'
sg23
S'a'
sg24
S'n'
ssg25
S'of'
p3023
sg27
g3023
sg28
I4
sg29
I3
sg30
g3006
sg31
g3006
sg32
g33
sg34
g655
sba(imodel.alignment_eq
Eq
p3024
(dp3025
g14
S'n'
sg16
g77
sg18
S'n'
sg19
(dp3026
g21
S'v'
sg22
S'r'
sg23
S'a'
sg24
S'n'
ssg25
S'server'
p3027
sg27
S'servers'
p3028
sg28
I5
sg29
I4
sg30
S'server'
p3029
sg31
g3007
sg32
g33
sg34
g77
sba(imodel.alignment_del
Del
p3030
(dp3031
g31
g3006
sg32
g86
sbasg60
(lp3032
S'a'
ag3015
ag3019
ag3023
ag3028
asba(imodel.training_problem
Training_problem
p3033
(dp3034
g4
(lp3035
S'previous'
p3036
aS'versions'
p3037
aS'of'
p3038
aS'the'
p3039
aS'API'
p3040
asg10
(lp3041
g35
(g36
g37
NtRp3042
(dp3043
g14
S'a'
sg16
g40
sg18
S'a'
sg19
(dp3044
g21
S'v'
sg22
S'r'
sg23
S'a'
sg24
S'n'
ssg25
S'early'
p3045
sg27
S'earlier'
p3046
sg28
I0
sg29
I0
sg30
g3036
sg31
g3036
sg32
g44
sg34
g1501
sba(imodel.alignment_eq
Eq
p3047
(dp3048
g14
S'n'
sg16
g77
sg18
S'n'
sg19
(dp3049
g21
S'v'
sg22
S'r'
sg23
S'a'
sg24
S'n'
ssg25
S'version'
p3050
sg27
S'versions'
p3051
sg28
I1
sg29
I1
sg30
S'version'
p3052
sg31
g3037
sg32
g33
sg34
g77
sba(imodel.alignment_eq
Eq
p3053
(dp3054
g14
g15
sg16
g655
sg18
g15
sg19
(dp3055
g21
S'v'
sg22
S'r'
sg23
S'a'
sg24
S'n'
ssg25
S'of'
p3056
sg27
g3056
sg28
I2
sg29
I2
sg30
g3038
sg31
g3038
sg32
g33
sg34
g655
sba(imodel.alignment_ins
Ins
p3057
(dp3058
g27
S'AT&T'
p3059
sg32
g54
sba(imodel.alignment_ins
Ins
p3060
(dp3061
g27
S"'s"
p3062
sg32
g54
sba(imodel.alignment_ins
Ins
p3063
(dp3064
g27
S'Watson'
p3065
sg32
g54
sba(imodel.alignment_eq
Eq
p3066
(dp3067
g14
S'n'
sg16
g48
sg18
S'n'
sg19
(dp3068
g21
S'v'
sg22
S'r'
sg23
S'a'
sg24
S'n'
ssg25
S'API'
p3069
sg27
g3069
sg28
I4
sg29
I6
sg30
g3040
sg31
g3040
sg32
g33
sg34
g48
sba(imodel.alignment_del
Del
p3070
(dp3071
g31
g3039
sg32
g86
sbasg60
(lp3072
g3046
ag3051
ag3056
ag3059
ag3062
ag3065
ag3069
asba(imodel.training_problem
Training_problem
p3073
(dp3074
g4
(lp3075
S'sometimes'
p3076
aS'called'
p3077
aS'the'
p3078
aS'father'
p3079
aS'of'
p3080
aS'global'
p3081
aS'warming'
p3082
asg10
(lp3083
(imodel.alignment_ins
Ins
p3084
(dp3085
g27
S'known'
p3086
sg32
g54
sba(imodel.alignment_ins
Ins
p3087
(dp3088
g27
S'as'
p3089
sg32
g54
sba(imodel.alignment_eq
Eq
p3090
(dp3091
g14
g15
sg16
g17
sg18
g15
sg19
(dp3092
g21
S'v'
sg22
S'r'
sg23
S'a'
sg24
S'n'
ssg25
S'the'
p3093
sg27
g3093
sg28
I2
sg29
I2
sg30
g3078
sg31
g3078
sg32
g33
sg34
g17
sba(imodel.alignment_eq
Eq
p3094
(dp3095
g14
S'n'
sg16
g57
sg18
S'n'
sg19
(dp3096
g21
S'v'
sg22
S'r'
sg23
S'a'
sg24
S'n'
ssg25
S'father'
p3097
sg27
g3097
sg28
I3
sg29
I3
sg30
g3079
sg31
g3079
sg32
g33
sg34
g57
sba(imodel.alignment_eq
Eq
p3098
(dp3099
g14
g15
sg16
g655
sg18
g15
sg19
(dp3100
g21
S'v'
sg22
S'r'
sg23
S'a'
sg24
S'n'
ssg25
S'of'
p3101
sg27
g3101
sg28
I4
sg29
I4
sg30
g3080
sg31
g3080
sg32
g33
sg34
g655
sba(imodel.alignment_eq
Eq
p3102
(dp3103
g14
S'a'
sg16
g40
sg18
S'a'
sg19
(dp3104
g21
S'v'
sg22
S'r'
sg23
S'a'
sg24
S'n'
ssg25
S'global'
p3105
sg27
g3105
sg28
I5
sg29
I5
sg30
g3081
sg31
g3081
sg32
g33
sg34
g40
sba(imodel.alignment_eq
Eq
p3106
(dp3107
g14
S'n'
sg16
g57
sg18
S'n'
sg19
(dp3108
g21
S'v'
sg22
S'r'
sg23
S'a'
sg24
S'n'
ssg25
S'warming'
p3109
sg27
g3109
sg28
I6
sg29
I6
sg30
g3082
sg31
g3082
sg32
g33
sg34
g57
sba(imodel.alignment_del
Del
p3110
(dp3111
g31
g3076
sg32
g86
sba(imodel.alignment_del
Del
p3112
(dp3113
g31
g3077
sg32
g86
sbasg60
(lp3114
g3086
ag3089
ag3093
ag3097
ag3101
ag3105
ag3109
asba(imodel.training_problem
Training_problem
p3115
(dp3116
g4
(lp3117
S'the'
p3118
aS'impact'
p3119
aS'of'
p3120
aS'rising'
p3121
aS'levels'
p3122
aS'of'
p3123
aS'greenhouse'
p3124
aS'gases'
p3125
asg10
(lp3126
(imodel.alignment_eq
Eq
p3127
(dp3128
g14
g15
sg16
g17
sg18
g15
sg19
(dp3129
g21
S'v'
sg22
S'r'
sg23
S'a'
sg24
S'n'
ssg25
S'the'
p3130
sg27
g3130
sg28
I0
sg29
I0
sg30
g3118
sg31
g3118
sg32
g33
sg34
g17
sbag35
(g36
g37
NtRp3131
(dp3132
g14
S'n'
sg16
g57
sg18
S'n'
sg19
(dp3133
g21
S'v'
sg22
S'r'
sg23
S'a'
sg24
S'n'
ssg25
S'effect'
p3134
sg27
S'effects'
p3135
sg28
I1
sg29
I1
sg30
g3119
sg31
g3119
sg32
g44
sg34
g77
sba(imodel.alignment_eq
Eq
p3136
(dp3137
g14
g15
sg16
g655
sg18
g15
sg19
(dp3138
g21
S'v'
sg22
S'r'
sg23
S'a'
sg24
S'n'
ssg25
S'of'
p3139
sg27
g3139
sg28
I2
sg29
I2
sg30
g3120
sg31
g3120
sg32
g33
sg34
g655
sba(imodel.alignment_ins
Ins
p3140
(dp3141
g27
S'concentrated'
p3142
sg32
g54
sba(imodel.alignment_eq
Eq
p3143
(dp3144
g14
S'n'
sg16
g57
sg18
S'n'
sg19
(dp3145
g21
S'v'
sg22
S'r'
sg23
S'a'
sg24
S'n'
ssg25
S'greenhouse'
p3146
sg27
g3146
sg28
I6
sg29
I4
sg30
g3124
sg31
g3124
sg32
g33
sg34
g57
sba(imodel.alignment_eq
Eq
p3147
(dp3148
g14
S'n'
sg16
g77
sg18
S'n'
sg19
(dp3149
g21
S'v'
sg22
S'r'
sg23
S'a'
sg24
S'n'
ssg25
S'gas'
p3150
sg27
S'gases'
p3151
sg28
I7
sg29
I5
sg30
S'gas'
p3152
sg31
g3125
sg32
g33
sg34
g77
sba(imodel.alignment_ins
Ins
p3153
(dp3154
g27
S'like'
p3155
sg32
g54
sba(imodel.alignment_ins
Ins
p3156
(dp3157
g27
S'carbon'
p3158
sg32
g54
sba(imodel.alignment_ins
Ins
p3159
(dp3160
g27
S'dioxide'
p3161
sg32
g54
sba(imodel.alignment_del
Del
p3162
(dp3163
g31
g3121
sg32
g86
sba(imodel.alignment_del
Del
p3164
(dp3165
g31
g3122
sg32
g86
sba(imodel.alignment_del
Del
p3166
(dp3167
g31
g3123
sg32
g86
sbasg60
(lp3168
g3130
ag3135
ag3139
ag3142
ag3146
ag3151
ag3155
ag3158
ag3161
asba(imodel.training_problem
Training_problem
p3169
(dp3170
g4
(lp3171
S'taking'
p3172
aS'a'
aS'long'
p3173
aS'time'
p3174
asg10
(lp3175
(imodel.alignment_eq
Eq
p3176
(dp3177
g14
S'v'
sg16
g1318
sg18
S'v'
sg19
(dp3178
g21
S'v'
sg22
S'r'
sg23
S'a'
sg24
S'n'
ssg25
S'take'
p3179
sg27
S'taking'
p3180
sg28
I0
sg29
I0
sg30
S'take'
p3181
sg31
g3172
sg32
g33
sg34
g1318
sbag35
(g36
g37
NtRp3182
(dp3183
g14
S'a'
sg16
g40
sg18
S'a'
sg19
(dp3184
g21
S'v'
sg22
S'r'
sg23
S'a'
sg24
S'n'
ssg25
S'long'
p3185
sg27
S'longer'
p3186
sg28
I2
sg29
I1
sg30
g3173
sg31
g3173
sg32
g44
sg34
g1501
sba(imodel.alignment_ins
Ins
p3187
(dp3188
g27
S'than'
p3189
sg32
g54
sba(imodel.alignment_ins
Ins
p3190
(dp3191
g27
S'expected'
p3192
sg32
g54
sba(imodel.alignment_del
Del
p3193
(dp3194
g31
S'a'
sg32
g86
sba(imodel.alignment_del
Del
p3195
(dp3196
g31
g3174
sg32
g86
sbasg60
(lp3197
g3180
ag3186
ag3189
ag3192
asba(imodel.training_problem
Training_problem
p3198
(dp3199
g4
(lp3200
S'a'
aS'statement'
p3201
aS'underlining'
p3202
aS'the'
p3203
aS'right'
p3204
aS'of'
p3205
aS'scientists'
p3206
aS'to'
p3207
aS'speak'
p3208
aS'out'
p3209
aS'without'
p3210
aS'restriction'
p3211
asg10
(lp3212
(imodel.alignment_eq
Eq
p3213
(dp3214
g14
g15
sg16
g17
sg18
g15
sg19
(dp3215
g21
S'v'
sg22
S'r'
sg23
S'a'
sg24
S'n'
ssg25
S'a'
sg27
S'a'
sg28
I0
sg29
I0
sg30
S'a'
sg31
S'a'
sg32
g33
sg34
g17
sba(imodel.alignment_eq
Eq
p3216
(dp3217
g14
S'n'
sg16
g57
sg18
S'n'
sg19
(dp3218
g21
S'v'
sg22
S'r'
sg23
S'a'
sg24
S'n'
ssg25
S'statement'
p3219
sg27
g3219
sg28
I1
sg29
I1
sg30
g3201
sg31
g3201
sg32
g33
sg34
g57
sbag35
(g36
g37
NtRp3220
(dp3221
g14
S'v'
sg16
g1318
sg18
S'v'
sg19
(dp3222
g21
S'v'
sg22
S'r'
sg23
S'a'
sg24
S'n'
ssg25
S'claim'
p3223
sg27
S'claiming'
p3224
sg28
I2
sg29
I2
sg30
S'underline'
p3225
sg31
g3202
sg32
g44
sg34
g1318
sba(imodel.alignment_eq
Eq
p3226
(dp3227
g14
g15
sg16
g17
sg18
g15
sg19
(dp3228
g21
S'v'
sg22
S'r'
sg23
S'a'
sg24
S'n'
ssg25
S'the'
p3229
sg27
g3229
sg28
I3
sg29
I3
sg30
g3203
sg31
g3203
sg32
g33
sg34
g17
sba(imodel.alignment_eq
Eq
p3230
(dp3231
g14
S'n'
sg16
g57
sg18
S'n'
sg19
(dp3232
g21
S'v'
sg22
S'r'
sg23
S'a'
sg24
S'n'
ssg25
S'right'
p3233
sg27
g3233
sg28
I4
sg29
I4
sg30
g3204
sg31
g3204
sg32
g33
sg34
g57
sba(imodel.alignment_ins
Ins
p3234
(dp3235
g27
S'for'
p3236
sg32
g54
sba(imodel.alignment_eq
Eq
p3237
(dp3238
g14
S'n'
sg16
g77
sg18
S'n'
sg19
(dp3239
g21
S'v'
sg22
S'r'
sg23
S'a'
sg24
S'n'
ssg25
S'scientist'
p3240
sg27
S'scientists'
p3241
sg28
I6
sg29
I6
sg30
S'scientist'
p3242
sg31
g3206
sg32
g33
sg34
g77
sba(imodel.alignment_eq
Eq
p3243
(dp3244
g14
g15
sg16
S'TO'
p3245
sg18
g15
sg19
(dp3246
g21
S'v'
sg22
S'r'
sg23
S'a'
sg24
S'n'
ssg25
S'to'
p3247
sg27
g3247
sg28
I7
sg29
I7
sg30
g3207
sg31
g3207
sg32
g33
sg34
g3245
sba(imodel.alignment_eq
Eq
p3248
(dp3249
g14
S'v'
sg16
g1115
sg18
S'v'
sg19
(dp3250
g21
S'v'
sg22
S'r'
sg23
S'a'
sg24
S'n'
ssg25
S'speak'
p3251
sg27
g3251
sg28
I8
sg29
I8
sg30
g3208
sg31
g3208
sg32
g33
sg34
g1115
sbag35
(g36
g37
NtRp3252
(dp3253
g14
S'n'
sg16
g57
sg18
S'r'
sg19
(dp3254
g21
S'v'
sg22
S'r'
sg23
S'a'
sg24
S'n'
ssg25
S'freely'
p3255
sg27
g3255
sg28
I11
sg29
I9
sg30
g3211
sg31
g3211
sg32
g44
sg34
g950
sba(imodel.alignment_del
Del
p3256
(dp3257
g31
g3205
sg32
g86
sba(imodel.alignment_del
Del
p3258
(dp3259
g31
g3209
sg32
g86
sba(imodel.alignment_del
Del
p3260
(dp3261
g31
g3210
sg32
g86
sbasg60
(lp3262
S'a'
ag3219
ag3224
ag3229
ag3233
ag3236
ag3241
ag3247
ag3251
ag3255
asba(imodel.training_problem
Training_problem
p3263
(dp3264
g4
(lp3265
S'several'
p3266
aS'wasted'
p3267
aS'years'
p3268
asg10
(lp3269
(imodel.alignment_eq
Eq
p3270
(dp3271
g14
S'n'
sg16
g77
sg18
S'n'
sg19
(dp3272
g21
S'v'
sg22
S'r'
sg23
S'a'
sg24
S'n'
ssg25
S'year'
p3273
sg27
S'years'
p3274
sg28
I2
sg29
I0
sg30
S'year'
p3275
sg31
g3268
sg32
g33
sg34
g77
sba(imodel.alignment_ins
Ins
p3276
(dp3277
g27
S'of'
p3278
sg32
g54
sba(imodel.alignment_eq
Eq
p3279
(dp3280
g14
S'v'
sg16
g149
sg18
S'a'
sg19
(dp3281
g21
S'v'
sg22
S'r'
sg23
S'a'
sg24
S'n'
ssg25
S'wasted'
p3282
sg27
g3282
sg28
I1
sg29
I2
sg30
S'waste'
p3283
sg31
g3267
sg32
g33
sg34
g40
sba(imodel.alignment_ins
Ins
p3284
(dp3285
g27
S'effort'
p3286
sg32
g54
sba(imodel.alignment_del
Del
p3287
(dp3288
g31
g3266
sg32
g86
sbasg60
(lp3289
g3274
ag3278
ag3282
ag3286
asba(imodel.training_problem
Training_problem
p3290
(dp3291
g4
(lp3292
S'the'
p3293
aS'fateful'
p3294
aS'day'
p3295
asg10
(lp3296
(imodel.alignment_eq
Eq
p3297
(dp3298
g14
g15
sg16
g17
sg18
g15
sg19
(dp3299
g21
S'v'
sg22
S'r'
sg23
S'a'
sg24
S'n'
ssg25
S'the'
p3300
sg27
g3300
sg28
I0
sg29
I0
sg30
g3293
sg31
g3293
sg32
g33
sg34
g17
sba(imodel.alignment_eq
Eq
p3301
(dp3302
g14
S'n'
sg16
g57
sg18
S'n'
sg19
(dp3303
g21
S'v'
sg22
S'r'
sg23
S'a'
sg24
S'n'
ssg25
S'day'
p3304
sg27
g3304
sg28
I2
sg29
I1
sg30
g3295
sg31
g3295
sg32
g33
sg34
g57
sba(imodel.alignment_del
Del
p3305
(dp3306
g31
g3294
sg32
g86
sbasg60
(lp3307
g3300
ag3304
asba(imodel.training_problem
Training_problem
p3308
(dp3309
g4
(lp3310
S'to'
p3311
aS'the'
p3312
aS'nature'
p3313
aS'and'
p3314
aS'detail'
p3315
aS'of'
p3316
aS'his'
p3317
aS'comments'
p3318
asg10
(lp3319
(imodel.alignment_eq
Eq
p3320
(dp3321
g14
g15
sg16
g3245
sg18
g15
sg19
(dp3322
g21
S'v'
sg22
S'r'
sg23
S'a'
sg24
S'n'
ssg25
S'to'
p3323
sg27
g3323
sg28
I0
sg29
I0
sg30
g3311
sg31
g3311
sg32
g33
sg34
g3245
sba(imodel.alignment_eq
Eq
p3324
(dp3325
g14
g15
sg16
g499
sg18
g15
sg19
(dp3326
g21
S'v'
sg22
S'r'
sg23
S'a'
sg24
S'n'
ssg25
S'his'
p3327
sg27
g3327
sg28
I6
sg29
I1
sg30
g3317
sg31
g3317
sg32
g33
sg34
g499
sba(imodel.alignment_ins
Ins
p3328
(dp3329
g27
S'more'
p3330
sg32
g54
sba(imodel.alignment_ins
Ins
p3331
(dp3332
g27
S'extreme'
p3333
sg32
g54
sba(imodel.alignment_eq
Eq
p3334
(dp3335
g14
S'n'
sg16
g77
sg18
S'n'
sg19
(dp3336
g21
S'v'
sg22
S'r'
sg23
S'a'
sg24
S'n'
ssg25
S'comment'
p3337
sg27
S'comments'
p3338
sg28
I7
sg29
I4
sg30
S'comment'
p3339
sg31
g3318
sg32
g33
sg34
g77
sba(imodel.alignment_del
Del
p3340
(dp3341
g31
g3312
sg32
g86
sba(imodel.alignment_del
Del
p3342
(dp3343
g31
g3313
sg32
g86
sba(imodel.alignment_del
Del
p3344
(dp3345
g31
g3314
sg32
g86
sba(imodel.alignment_del
Del
p3346
(dp3347
g31
g3315
sg32
g86
sba(imodel.alignment_del
Del
p3348
(dp3349
g31
g3316
sg32
g86
sbasg60
(lp3350
g3323
ag3327
ag3330
ag3333
ag3338
asba(imodel.training_problem
Training_problem
p3351
(dp3352
g4
(lp3353
S'the'
p3354
aS'slaver'
p3355
aS'Boba'
p3356
aS'Fett'
p3357
asg10
(lp3358
(imodel.alignment_ins
Ins
p3359
(dp3360
g27
S'bounty'
p3361
sg32
g54
sba(imodel.alignment_ins
Ins
p3362
(dp3363
g27
S'hunter'
p3364
sg32
g54
sba(imodel.alignment_ins
Ins
p3365
(dp3366
g27
S'and'
p3367
sg32
g54
sbag35
(g36
g37
NtRp3368
(dp3369
g14
S'n'
sg16
g57
sg18
S'v'
sg19
(dp3370
g21
S'v'
sg22
S'r'
sg23
S'a'
sg24
S'n'
ssg25
S'slave'
p3371
sg27
g3371
sg28
I1
sg29
I3
sg30
g3355
sg31
g3355
sg32
g44
sg34
g1115
sba(imodel.alignment_ins
Ins
p3372
(dp3373
g27
S'trader'
p3374
sg32
g54
sba(imodel.alignment_eq
Eq
p3375
(dp3376
g14
S'n'
sg16
g48
sg18
S'n'
sg19
(dp3377
g21
S'v'
sg22
S'r'
sg23
S'a'
sg24
S'n'
ssg25
S'Boba'
p3378
sg27
g3378
sg28
I2
sg29
I5
sg30
g3356
sg31
g3356
sg32
g33
sg34
g48
sba(imodel.alignment_eq
Eq
p3379
(dp3380
g14
S'n'
sg16
g48
sg18
S'n'
sg19
(dp3381
g21
S'v'
sg22
S'r'
sg23
S'a'
sg24
S'n'
ssg25
S'Fett'
p3382
sg27
g3382
sg28
I3
sg29
I6
sg30
g3357
sg31
g3357
sg32
g33
sg34
g48
sba(imodel.alignment_del
Del
p3383
(dp3384
g31
g3354
sg32
g86
sbasg60
(lp3385
g3361
ag3364
ag3367
ag3371
ag3374
ag3378
ag3382
asba(imodel.training_problem
Training_problem
p3386
(dp3387
g4
(lp3388
S'the'
p3389
aS'mission'
p3390
aS'to'
p3391
aS'Mars'
p3392
asg10
(lp3393
(imodel.alignment_eq
Eq
p3394
(dp3395
g14
g15
sg16
g17
sg18
g15
sg19
(dp3396
g21
S'v'
sg22
S'r'
sg23
S'a'
sg24
S'n'
ssg25
S'the'
p3397
sg27
g3397
sg28
I0
sg29
I0
sg30
g3389
sg31
g3389
sg32
g33
sg34
g17
sba(imodel.alignment_ins
Ins
p3398
(dp3399
g27
S'oft'
p3400
sg32
g54
sba(imodel.alignment_ins
Ins
p3401
(dp3402
g27
S'delayed'
p3403
sg32
g54
sba(imodel.alignment_eq
Eq
p3404
(dp3405
g14
S'n'
sg16
g57
sg18
S'n'
sg19
(dp3406
g21
S'v'
sg22
S'r'
sg23
S'a'
sg24
S'n'
ssg25
S'mission'
p3407
sg27
g3407
sg28
I1
sg29
I3
sg30
g3390
sg31
g3390
sg32
g33
sg34
g57
sba(imodel.alignment_eq
Eq
p3408
(dp3409
g14
g15
sg16
g3245
sg18
g15
sg19
(dp3410
g21
S'v'
sg22
S'r'
sg23
S'a'
sg24
S'n'
ssg25
S'to'
p3411
sg27
g3411
sg28
I2
sg29
I4
sg30
g3391
sg31
g3391
sg32
g33
sg34
g3245
sba(imodel.alignment_eq
Eq
p3412
(dp3413
g14
S'n'
sg16
g48
sg18
S'n'
sg19
(dp3414
g21
S'v'
sg22
S'r'
sg23
S'a'
sg24
S'n'
ssg25
S'Mars'
p3415
sg27
g3415
sg28
I3
sg29
I5
sg30
g3392
sg31
g3392
sg32
g33
sg34
g48
sbasg60
(lp3416
g3397
ag3400
ag3403
ag3407
ag3411
ag3415
asba(imodel.training_problem
Training_problem
p3417
(dp3418
g4
(lp3419
S'the'
p3420
aS'French'
p3421
aS'version'
p3422
aS'of'
p3423
aS'Survivor'
p3424
asg10
(lp3425
(imodel.alignment_eq
Eq
p3426
(dp3427
g14
S'a'
sg16
g40
sg18
S'a'
sg19
(dp3428
g21
S'v'
sg22
S'r'
sg23
S'a'
sg24
S'n'
ssg25
S'French'
p3429
sg27
g3429
sg28
I1
sg29
I0
sg30
g3421
sg31
g3421
sg32
g33
sg34
g40
sba(imodel.alignment_eq
Eq
p3430
(dp3431
g14
S'n'
sg16
g48
sg18
S'n'
sg19
(dp3432
g21
S'v'
sg22
S'r'
sg23
S'a'
sg24
S'n'
ssg25
S'Survivor'
p3433
sg27
g3433
sg28
I4
sg29
I1
sg30
g3424
sg31
g3424
sg32
g33
sg34
g48
sba(imodel.alignment_del
Del
p3434
(dp3435
g31
g3420
sg32
g86
sba(imodel.alignment_del
Del
p3436
(dp3437
g31
g3422
sg32
g86
sba(imodel.alignment_del
Del
p3438
(dp3439
g31
g3423
sg32
g86
sbasg60
(lp3440
g3429
ag3433
asba(imodel.training_problem
Training_problem
p3441
(dp3442
g4
(lp3443
S'professional'
p3444
aS'wrestler'
p3445
aS'and'
p3446
aS'art'
p3447
aS'critic'
p3448
asg10
(lp3449
(imodel.alignment_ins
Ins
p3450
(dp3451
g27
S'known'
p3452
sg32
g54
sba(imodel.alignment_ins
Ins
p3453
(dp3454
g27
S'for'
p3455
sg32
g54
sba(imodel.alignment_ins
Ins
p3456
(dp3457
g27
S'his'
p3458
sg32
g54
sba(imodel.alignment_ins
Ins
p3459
(dp3460
g27
S'career'
p3461
sg32
g54
sba(imodel.alignment_ins
Ins
p3462
(dp3463
g27
S'as'
p3464
sg32
g54
sba(imodel.alignment_ins
Ins
p3465
(dp3466
g27
S'a'
sg32
g54
sba(imodel.alignment_eq
Eq
p3467
(dp3468
g14
S'a'
sg16
g40
sg18
S'a'
sg19
(dp3469
g21
S'v'
sg22
S'r'
sg23
S'a'
sg24
S'n'
ssg25
S'professional'
p3470
sg27
g3470
sg28
I0
sg29
I6
sg30
g3444
sg31
g3444
sg32
g33
sg34
g40
sba(imodel.alignment_eq
Eq
p3471
(dp3472
g14
S'n'
sg16
g57
sg18
S'n'
sg19
(dp3473
g21
S'v'
sg22
S'r'
sg23
S'a'
sg24
S'n'
ssg25
S'wrestler'
p3474
sg27
g3474
sg28
I1
sg29
I7
sg30
g3445
sg31
g3445
sg32
g33
sg34
g57
sba(imodel.alignment_del
Del
p3475
(dp3476
g31
g3446
sg32
g86
sba(imodel.alignment_del
Del
p3477
(dp3478
g31
g3447
sg32
g86
sba(imodel.alignment_del
Del
p3479
(dp3480
g31
g3448
sg32
g86
sbasg60
(lp3481
g3452
ag3455
ag3458
ag3461
ag3464
aS'a'
ag3470
ag3474
asba(imodel.training_problem
Training_problem
p3482
(dp3483
g4
(lp3484
S'assistant'
p3485
aS'to'
p3486
aS'the'
p3487
aS'general'
p3488
aS'manager'
p3489
asg10
(lp3490
(imodel.alignment_eq
Eq
p3491
(dp3492
g14
S'n'
sg16
g57
sg18
S'n'
sg19
(dp3493
g21
S'v'
sg22
S'r'
sg23
S'a'
sg24
S'n'
ssg25
S'assistant'
p3494
sg27
g3494
sg28
I0
sg29
I0
sg30
g3485
sg31
g3485
sg32
g33
sg34
g57
sba(imodel.alignment_eq
Eq
p3495
(dp3496
g14
S'n'
sg16
g57
sg18
S'n'
sg19
(dp3497
g21
S'v'
sg22
S'r'
sg23
S'a'
sg24
S'n'
ssg25
S'manager'
p3498
sg27
g3498
sg28
I4
sg29
I1
sg30
g3489
sg31
g3489
sg32
g33
sg34
g57
sba(imodel.alignment_ins
Ins
p3499
(dp3500
g27
S'Carl'
p3501
sg32
g54
sba(imodel.alignment_ins
Ins
p3502
(dp3503
g27
S'Jones'
p3504
sg32
g54
sba(imodel.alignment_del
Del
p3505
(dp3506
g31
g3486
sg32
g86
sba(imodel.alignment_del
Del
p3507
(dp3508
g31
g3487
sg32
g86
sba(imodel.alignment_del
Del
p3509
(dp3510
g31
g3488
sg32
g86
sbasg60
(lp3511
g3494
ag3498
ag3501
ag3504
asba(imodel.training_problem
Training_problem
p3512
(dp3513
g4
(lp3514
S'the'
p3515
aS'black'
p3516
aS'and'
p3517
aS'white'
p3518
aS'cat'
p3519
asg10
(lp3520
(imodel.alignment_eq
Eq
p3521
(dp3522
g14
g15
sg16
g17
sg18
g15
sg19
(dp3523
g21
S'v'
sg22
S'r'
sg23
S'a'
sg24
S'n'
ssg25
S'the'
p3524
sg27
g3524
sg28
I0
sg29
I0
sg30
g3515
sg31
g3515
sg32
g33
sg34
g17
sba(imodel.alignment_ins
Ins
p3525
(dp3526
g27
S'tuxedo'
p3527
sg32
g54
sba(imodel.alignment_eq
Eq
p3528
(dp3529
g14
S'n'
sg16
g57
sg18
S'n'
sg19
(dp3530
g21
S'v'
sg22
S'r'
sg23
S'a'
sg24
S'n'
ssg25
S'cat'
p3531
sg27
g3531
sg28
I4
sg29
I2
sg30
g3519
sg31
g3519
sg32
g33
sg34
g57
sba(imodel.alignment_del
Del
p3532
(dp3533
g31
g3516
sg32
g86
sba(imodel.alignment_del
Del
p3534
(dp3535
g31
g3517
sg32
g86
sba(imodel.alignment_del
Del
p3536
(dp3537
g31
g3518
sg32
g86
sbasg60
(lp3538
g3524
ag3527
ag3531
asba.